ARM GAS  C:\Users\Simio\AppData\Local\Temp\ccEdhApf.s 			page 1


   1              		.cpu cortex-m4
   2              		.arch armv7e-m
   3              		.fpu fpv4-sp-d16
   4              		.eabi_attribute 27, 1
   5              		.eabi_attribute 28, 1
   6              		.eabi_attribute 20, 1
   7              		.eabi_attribute 21, 1
   8              		.eabi_attribute 23, 3
   9              		.eabi_attribute 24, 1
  10              		.eabi_attribute 25, 1
  11              		.eabi_attribute 26, 1
  12              		.eabi_attribute 30, 1
  13              		.eabi_attribute 34, 1
  14              		.eabi_attribute 18, 4
  15              		.file	"adc.c"
  16              		.text
  17              	.Ltext0:
  18              		.cfi_sections	.debug_frame
  19              		.file 1 "Core/Src/adc.c"
  20              		.section	.text.MX_ADC1_Init,"ax",%progbits
  21              		.align	1
  22              		.global	MX_ADC1_Init
  23              		.syntax unified
  24              		.thumb
  25              		.thumb_func
  27              	MX_ADC1_Init:
  28              	.LFB123:
   1:Core/Src/adc.c **** /* USER CODE BEGIN Header */
   2:Core/Src/adc.c **** /**
   3:Core/Src/adc.c ****   ******************************************************************************
   4:Core/Src/adc.c ****   * @file    adc.c
   5:Core/Src/adc.c ****   * @brief   This file provides code for the configuration
   6:Core/Src/adc.c ****   *          of the ADC instances.
   7:Core/Src/adc.c ****   ******************************************************************************
   8:Core/Src/adc.c ****   * @attention
   9:Core/Src/adc.c ****   *
  10:Core/Src/adc.c ****   * Copyright (c) 2022 STMicroelectronics.
  11:Core/Src/adc.c ****   * All rights reserved.
  12:Core/Src/adc.c ****   *
  13:Core/Src/adc.c ****   * This software is licensed under terms that can be found in the LICENSE file
  14:Core/Src/adc.c ****   * in the root directory of this software component.
  15:Core/Src/adc.c ****   * If no LICENSE file comes with this software, it is provided AS-IS.
  16:Core/Src/adc.c ****   *
  17:Core/Src/adc.c ****   ******************************************************************************
  18:Core/Src/adc.c ****   */
  19:Core/Src/adc.c **** /* USER CODE END Header */
  20:Core/Src/adc.c **** /* Includes ------------------------------------------------------------------*/
  21:Core/Src/adc.c **** #include "adc.h"
  22:Core/Src/adc.c **** 
  23:Core/Src/adc.c **** /* USER CODE BEGIN 0 */
  24:Core/Src/adc.c **** 
  25:Core/Src/adc.c **** /* USER CODE END 0 */
  26:Core/Src/adc.c **** 
  27:Core/Src/adc.c **** ADC_HandleTypeDef hadc1;
  28:Core/Src/adc.c **** DMA_HandleTypeDef hdma_adc1;
  29:Core/Src/adc.c **** 
  30:Core/Src/adc.c **** /* ADC1 init function */
ARM GAS  C:\Users\Simio\AppData\Local\Temp\ccEdhApf.s 			page 2


  31:Core/Src/adc.c **** void MX_ADC1_Init(void)
  32:Core/Src/adc.c **** {
  29              		.loc 1 32 1 view -0
  30              		.cfi_startproc
  31              		@ args = 0, pretend = 0, frame = 64
  32              		@ frame_needed = 0, uses_anonymous_args = 0
  33 0000 10B5     		push	{r4, lr}
  34              	.LCFI0:
  35              		.cfi_def_cfa_offset 8
  36              		.cfi_offset 4, -8
  37              		.cfi_offset 14, -4
  38 0002 90B0     		sub	sp, sp, #64
  39              	.LCFI1:
  40              		.cfi_def_cfa_offset 72
  33:Core/Src/adc.c **** 
  34:Core/Src/adc.c ****   /* USER CODE BEGIN ADC1_Init 0 */
  35:Core/Src/adc.c **** 
  36:Core/Src/adc.c ****   /* USER CODE END ADC1_Init 0 */
  37:Core/Src/adc.c **** 
  38:Core/Src/adc.c ****   ADC_ChannelConfTypeDef sConfig = {0};
  41              		.loc 1 38 3 view .LVU1
  42              		.loc 1 38 26 is_stmt 0 view .LVU2
  43 0004 0024     		movs	r4, #0
  44 0006 0A94     		str	r4, [sp, #40]
  45 0008 0B94     		str	r4, [sp, #44]
  46 000a 0C94     		str	r4, [sp, #48]
  47 000c 0D94     		str	r4, [sp, #52]
  48 000e 0E94     		str	r4, [sp, #56]
  49 0010 0F94     		str	r4, [sp, #60]
  39:Core/Src/adc.c ****   ADC_InjectionConfTypeDef sConfigInjected = {0};
  50              		.loc 1 39 3 is_stmt 1 view .LVU3
  51              		.loc 1 39 28 is_stmt 0 view .LVU4
  52 0012 2822     		movs	r2, #40
  53 0014 2146     		mov	r1, r4
  54 0016 6846     		mov	r0, sp
  55 0018 FFF7FEFF 		bl	memset
  56              	.LVL0:
  40:Core/Src/adc.c **** 
  41:Core/Src/adc.c ****   /* USER CODE BEGIN ADC1_Init 1 */
  42:Core/Src/adc.c **** 
  43:Core/Src/adc.c ****   /* USER CODE END ADC1_Init 1 */
  44:Core/Src/adc.c ****   /** Common config
  45:Core/Src/adc.c ****   */
  46:Core/Src/adc.c ****   hadc1.Instance = ADC1;
  57              		.loc 1 46 3 is_stmt 1 view .LVU5
  58              		.loc 1 46 18 is_stmt 0 view .LVU6
  59 001c 3448     		ldr	r0, .L13
  60 001e 4FF0A043 		mov	r3, #1342177280
  61 0022 0360     		str	r3, [r0]
  47:Core/Src/adc.c ****   hadc1.Init.ClockPrescaler = ADC_CLOCK_ASYNC_DIV1;
  62              		.loc 1 47 3 is_stmt 1 view .LVU7
  63              		.loc 1 47 29 is_stmt 0 view .LVU8
  64 0024 4460     		str	r4, [r0, #4]
  48:Core/Src/adc.c ****   hadc1.Init.Resolution = ADC_RESOLUTION_12B;
  65              		.loc 1 48 3 is_stmt 1 view .LVU9
  66              		.loc 1 48 25 is_stmt 0 view .LVU10
  67 0026 8460     		str	r4, [r0, #8]
ARM GAS  C:\Users\Simio\AppData\Local\Temp\ccEdhApf.s 			page 3


  49:Core/Src/adc.c ****   hadc1.Init.ScanConvMode = ADC_SCAN_ENABLE;
  68              		.loc 1 49 3 is_stmt 1 view .LVU11
  69              		.loc 1 49 27 is_stmt 0 view .LVU12
  70 0028 0123     		movs	r3, #1
  71 002a 0361     		str	r3, [r0, #16]
  50:Core/Src/adc.c ****   hadc1.Init.ContinuousConvMode = DISABLE;
  72              		.loc 1 50 3 is_stmt 1 view .LVU13
  73              		.loc 1 50 33 is_stmt 0 view .LVU14
  74 002c 4476     		strb	r4, [r0, #25]
  51:Core/Src/adc.c ****   hadc1.Init.DiscontinuousConvMode = DISABLE;
  75              		.loc 1 51 3 is_stmt 1 view .LVU15
  76              		.loc 1 51 36 is_stmt 0 view .LVU16
  77 002e 80F82040 		strb	r4, [r0, #32]
  52:Core/Src/adc.c ****   hadc1.Init.ExternalTrigConvEdge = ADC_EXTERNALTRIGCONVEDGE_RISING;
  78              		.loc 1 52 3 is_stmt 1 view .LVU17
  79              		.loc 1 52 35 is_stmt 0 view .LVU18
  80 0032 4FF48062 		mov	r2, #1024
  81 0036 C262     		str	r2, [r0, #44]
  53:Core/Src/adc.c ****   hadc1.Init.ExternalTrigConv = ADC_EXTERNALTRIGCONV_T1_TRGO2;
  82              		.loc 1 53 3 is_stmt 1 view .LVU19
  83              		.loc 1 53 31 is_stmt 0 view .LVU20
  84 0038 4FF42072 		mov	r2, #640
  85 003c 8262     		str	r2, [r0, #40]
  54:Core/Src/adc.c ****   hadc1.Init.DataAlign = ADC_DATAALIGN_RIGHT;
  86              		.loc 1 54 3 is_stmt 1 view .LVU21
  87              		.loc 1 54 24 is_stmt 0 view .LVU22
  88 003e C460     		str	r4, [r0, #12]
  55:Core/Src/adc.c ****   hadc1.Init.NbrOfConversion = 3;
  89              		.loc 1 55 3 is_stmt 1 view .LVU23
  90              		.loc 1 55 30 is_stmt 0 view .LVU24
  91 0040 0322     		movs	r2, #3
  92 0042 C261     		str	r2, [r0, #28]
  56:Core/Src/adc.c ****   hadc1.Init.DMAContinuousRequests = ENABLE;
  93              		.loc 1 56 3 is_stmt 1 view .LVU25
  94              		.loc 1 56 36 is_stmt 0 view .LVU26
  95 0044 80F83030 		strb	r3, [r0, #48]
  57:Core/Src/adc.c ****   hadc1.Init.EOCSelection = ADC_EOC_SEQ_CONV;
  96              		.loc 1 57 3 is_stmt 1 view .LVU27
  97              		.loc 1 57 27 is_stmt 0 view .LVU28
  98 0048 0823     		movs	r3, #8
  99 004a 4361     		str	r3, [r0, #20]
  58:Core/Src/adc.c ****   hadc1.Init.LowPowerAutoWait = DISABLE;
 100              		.loc 1 58 3 is_stmt 1 view .LVU29
 101              		.loc 1 58 31 is_stmt 0 view .LVU30
 102 004c 0476     		strb	r4, [r0, #24]
  59:Core/Src/adc.c ****   hadc1.Init.Overrun = ADC_OVR_DATA_OVERWRITTEN;
 103              		.loc 1 59 3 is_stmt 1 view .LVU31
 104              		.loc 1 59 22 is_stmt 0 view .LVU32
 105 004e 4463     		str	r4, [r0, #52]
  60:Core/Src/adc.c ****   if (HAL_ADC_Init(&hadc1) != HAL_OK)
 106              		.loc 1 60 3 is_stmt 1 view .LVU33
 107              		.loc 1 60 7 is_stmt 0 view .LVU34
 108 0050 FFF7FEFF 		bl	HAL_ADC_Init
 109              	.LVL1:
 110              		.loc 1 60 6 discriminator 1 view .LVU35
 111 0054 0028     		cmp	r0, #0
 112 0056 3BD1     		bne	.L8
ARM GAS  C:\Users\Simio\AppData\Local\Temp\ccEdhApf.s 			page 4


 113              	.L2:
  61:Core/Src/adc.c ****   {
  62:Core/Src/adc.c ****     Error_Handler();
  63:Core/Src/adc.c ****   }
  64:Core/Src/adc.c ****   /** Configure Regular Channel
  65:Core/Src/adc.c ****   */
  66:Core/Src/adc.c ****   sConfig.Channel = ADC_CHANNEL_11;
 114              		.loc 1 66 3 is_stmt 1 view .LVU36
 115              		.loc 1 66 19 is_stmt 0 view .LVU37
 116 0058 0B23     		movs	r3, #11
 117 005a 0A93     		str	r3, [sp, #40]
  67:Core/Src/adc.c ****   sConfig.Rank = ADC_REGULAR_RANK_1;
 118              		.loc 1 67 3 is_stmt 1 view .LVU38
 119              		.loc 1 67 16 is_stmt 0 view .LVU39
 120 005c 0123     		movs	r3, #1
 121 005e 0B93     		str	r3, [sp, #44]
  68:Core/Src/adc.c ****   sConfig.SingleDiff = ADC_SINGLE_ENDED;
 122              		.loc 1 68 3 is_stmt 1 view .LVU40
 123              		.loc 1 68 22 is_stmt 0 view .LVU41
 124 0060 0023     		movs	r3, #0
 125 0062 0D93     		str	r3, [sp, #52]
  69:Core/Src/adc.c ****   sConfig.SamplingTime = ADC_SAMPLETIME_19CYCLES_5;
 126              		.loc 1 69 3 is_stmt 1 view .LVU42
 127              		.loc 1 69 24 is_stmt 0 view .LVU43
 128 0064 0422     		movs	r2, #4
 129 0066 0C92     		str	r2, [sp, #48]
  70:Core/Src/adc.c ****   sConfig.OffsetNumber = ADC_OFFSET_NONE;
 130              		.loc 1 70 3 is_stmt 1 view .LVU44
 131              		.loc 1 70 24 is_stmt 0 view .LVU45
 132 0068 0E93     		str	r3, [sp, #56]
  71:Core/Src/adc.c ****   sConfig.Offset = 0;
 133              		.loc 1 71 3 is_stmt 1 view .LVU46
 134              		.loc 1 71 18 is_stmt 0 view .LVU47
 135 006a 0F93     		str	r3, [sp, #60]
  72:Core/Src/adc.c ****   if (HAL_ADC_ConfigChannel(&hadc1, &sConfig) != HAL_OK)
 136              		.loc 1 72 3 is_stmt 1 view .LVU48
 137              		.loc 1 72 7 is_stmt 0 view .LVU49
 138 006c 0AA9     		add	r1, sp, #40
 139 006e 2048     		ldr	r0, .L13
 140 0070 FFF7FEFF 		bl	HAL_ADC_ConfigChannel
 141              	.LVL2:
 142              		.loc 1 72 6 discriminator 1 view .LVU50
 143 0074 0028     		cmp	r0, #0
 144 0076 2ED1     		bne	.L9
 145              	.L3:
  73:Core/Src/adc.c ****   {
  74:Core/Src/adc.c ****     Error_Handler();
  75:Core/Src/adc.c ****   }
  76:Core/Src/adc.c ****   /** Configure Regular Channel
  77:Core/Src/adc.c ****   */
  78:Core/Src/adc.c ****   sConfig.Channel = ADC_CHANNEL_10;
 146              		.loc 1 78 3 is_stmt 1 view .LVU51
 147              		.loc 1 78 19 is_stmt 0 view .LVU52
 148 0078 0A23     		movs	r3, #10
 149 007a 0A93     		str	r3, [sp, #40]
  79:Core/Src/adc.c ****   sConfig.Rank = ADC_REGULAR_RANK_3;
 150              		.loc 1 79 3 is_stmt 1 view .LVU53
ARM GAS  C:\Users\Simio\AppData\Local\Temp\ccEdhApf.s 			page 5


 151              		.loc 1 79 16 is_stmt 0 view .LVU54
 152 007c 0323     		movs	r3, #3
 153 007e 0B93     		str	r3, [sp, #44]
  80:Core/Src/adc.c ****   if (HAL_ADC_ConfigChannel(&hadc1, &sConfig) != HAL_OK)
 154              		.loc 1 80 3 is_stmt 1 view .LVU55
 155              		.loc 1 80 7 is_stmt 0 view .LVU56
 156 0080 0AA9     		add	r1, sp, #40
 157 0082 1B48     		ldr	r0, .L13
 158 0084 FFF7FEFF 		bl	HAL_ADC_ConfigChannel
 159              	.LVL3:
 160              		.loc 1 80 6 discriminator 1 view .LVU57
 161 0088 40BB     		cbnz	r0, .L10
 162              	.L4:
  81:Core/Src/adc.c ****   {
  82:Core/Src/adc.c ****     Error_Handler();
  83:Core/Src/adc.c ****   }
  84:Core/Src/adc.c ****   /** Configure Regular Channel
  85:Core/Src/adc.c ****   */
  86:Core/Src/adc.c ****   sConfig.Channel = ADC_CHANNEL_2;
 163              		.loc 1 86 3 is_stmt 1 view .LVU58
 164              		.loc 1 86 19 is_stmt 0 view .LVU59
 165 008a 0223     		movs	r3, #2
 166 008c 0A93     		str	r3, [sp, #40]
  87:Core/Src/adc.c ****   sConfig.Rank = ADC_REGULAR_RANK_2;
 167              		.loc 1 87 3 is_stmt 1 view .LVU60
 168              		.loc 1 87 16 is_stmt 0 view .LVU61
 169 008e 0B93     		str	r3, [sp, #44]
  88:Core/Src/adc.c ****   if (HAL_ADC_ConfigChannel(&hadc1, &sConfig) != HAL_OK)
 170              		.loc 1 88 3 is_stmt 1 view .LVU62
 171              		.loc 1 88 7 is_stmt 0 view .LVU63
 172 0090 0AA9     		add	r1, sp, #40
 173 0092 1748     		ldr	r0, .L13
 174 0094 FFF7FEFF 		bl	HAL_ADC_ConfigChannel
 175              	.LVL4:
 176              		.loc 1 88 6 discriminator 1 view .LVU64
 177 0098 18BB     		cbnz	r0, .L11
 178              	.L5:
  89:Core/Src/adc.c ****   {
  90:Core/Src/adc.c ****     Error_Handler();
  91:Core/Src/adc.c ****   }
  92:Core/Src/adc.c ****   /** Configure Injected Channel
  93:Core/Src/adc.c ****   */
  94:Core/Src/adc.c ****   sConfigInjected.InjectedChannel = ADC_CHANNEL_12;
 179              		.loc 1 94 3 is_stmt 1 view .LVU65
 180              		.loc 1 94 35 is_stmt 0 view .LVU66
 181 009a 0C23     		movs	r3, #12
 182 009c 0093     		str	r3, [sp]
  95:Core/Src/adc.c ****   sConfigInjected.InjectedRank = ADC_INJECTED_RANK_1;
 183              		.loc 1 95 3 is_stmt 1 view .LVU67
 184              		.loc 1 95 32 is_stmt 0 view .LVU68
 185 009e 0122     		movs	r2, #1
 186 00a0 0192     		str	r2, [sp, #4]
  96:Core/Src/adc.c ****   sConfigInjected.InjectedSingleDiff = ADC_SINGLE_ENDED;
 187              		.loc 1 96 3 is_stmt 1 view .LVU69
 188              		.loc 1 96 38 is_stmt 0 view .LVU70
 189 00a2 0023     		movs	r3, #0
 190 00a4 0393     		str	r3, [sp, #12]
ARM GAS  C:\Users\Simio\AppData\Local\Temp\ccEdhApf.s 			page 6


  97:Core/Src/adc.c ****   sConfigInjected.InjectedNbrOfConversion = 1;
 191              		.loc 1 97 3 is_stmt 1 view .LVU71
 192              		.loc 1 97 43 is_stmt 0 view .LVU72
 193 00a6 0692     		str	r2, [sp, #24]
  98:Core/Src/adc.c ****   sConfigInjected.InjectedSamplingTime = ADC_SAMPLETIME_601CYCLES_5;
 194              		.loc 1 98 3 is_stmt 1 view .LVU73
 195              		.loc 1 98 40 is_stmt 0 view .LVU74
 196 00a8 0721     		movs	r1, #7
 197 00aa 0291     		str	r1, [sp, #8]
  99:Core/Src/adc.c ****   sConfigInjected.ExternalTrigInjecConvEdge = ADC_EXTERNALTRIGINJECCONV_EDGE_RISING;
 198              		.loc 1 99 3 is_stmt 1 view .LVU75
 199              		.loc 1 99 45 is_stmt 0 view .LVU76
 200 00ac 4021     		movs	r1, #64
 201 00ae 0991     		str	r1, [sp, #36]
 100:Core/Src/adc.c ****   sConfigInjected.ExternalTrigInjecConv = ADC_INJECTED_SOFTWARE_START;
 202              		.loc 1 100 3 is_stmt 1 view .LVU77
 203              		.loc 1 100 41 is_stmt 0 view .LVU78
 204 00b0 0892     		str	r2, [sp, #32]
 101:Core/Src/adc.c ****   sConfigInjected.AutoInjectedConv = DISABLE;
 205              		.loc 1 101 3 is_stmt 1 view .LVU79
 206              		.loc 1 101 36 is_stmt 0 view .LVU80
 207 00b2 8DF81D30 		strb	r3, [sp, #29]
 102:Core/Src/adc.c ****   sConfigInjected.InjectedDiscontinuousConvMode = DISABLE;
 208              		.loc 1 102 3 is_stmt 1 view .LVU81
 209              		.loc 1 102 49 is_stmt 0 view .LVU82
 210 00b6 8DF81C30 		strb	r3, [sp, #28]
 103:Core/Src/adc.c ****   sConfigInjected.QueueInjectedContext = DISABLE;
 211              		.loc 1 103 3 is_stmt 1 view .LVU83
 212              		.loc 1 103 40 is_stmt 0 view .LVU84
 213 00ba 8DF81E30 		strb	r3, [sp, #30]
 104:Core/Src/adc.c ****   sConfigInjected.InjectedOffset = 0;
 214              		.loc 1 104 3 is_stmt 1 view .LVU85
 215              		.loc 1 104 34 is_stmt 0 view .LVU86
 216 00be 0593     		str	r3, [sp, #20]
 105:Core/Src/adc.c ****   sConfigInjected.InjectedOffsetNumber = ADC_OFFSET_NONE;
 217              		.loc 1 105 3 is_stmt 1 view .LVU87
 218              		.loc 1 105 40 is_stmt 0 view .LVU88
 219 00c0 0493     		str	r3, [sp, #16]
 106:Core/Src/adc.c ****   if (HAL_ADCEx_InjectedConfigChannel(&hadc1, &sConfigInjected) != HAL_OK)
 220              		.loc 1 106 3 is_stmt 1 view .LVU89
 221              		.loc 1 106 7 is_stmt 0 view .LVU90
 222 00c2 6946     		mov	r1, sp
 223 00c4 0A48     		ldr	r0, .L13
 224 00c6 FFF7FEFF 		bl	HAL_ADCEx_InjectedConfigChannel
 225              	.LVL5:
 226              		.loc 1 106 6 discriminator 1 view .LVU91
 227 00ca 68B9     		cbnz	r0, .L12
 228              	.L1:
 107:Core/Src/adc.c ****   {
 108:Core/Src/adc.c ****     Error_Handler();
 109:Core/Src/adc.c ****   }
 110:Core/Src/adc.c ****   /* USER CODE BEGIN ADC1_Init 2 */
 111:Core/Src/adc.c **** 
 112:Core/Src/adc.c ****   /* USER CODE END ADC1_Init 2 */
 113:Core/Src/adc.c **** 
 114:Core/Src/adc.c **** }
 229              		.loc 1 114 1 view .LVU92
ARM GAS  C:\Users\Simio\AppData\Local\Temp\ccEdhApf.s 			page 7


 230 00cc 10B0     		add	sp, sp, #64
 231              	.LCFI2:
 232              		.cfi_remember_state
 233              		.cfi_def_cfa_offset 8
 234              		@ sp needed
 235 00ce 10BD     		pop	{r4, pc}
 236              	.L8:
 237              	.LCFI3:
 238              		.cfi_restore_state
  62:Core/Src/adc.c ****   }
 239              		.loc 1 62 5 is_stmt 1 view .LVU93
 240 00d0 FFF7FEFF 		bl	Error_Handler
 241              	.LVL6:
 242 00d4 C0E7     		b	.L2
 243              	.L9:
  74:Core/Src/adc.c ****   }
 244              		.loc 1 74 5 view .LVU94
 245 00d6 FFF7FEFF 		bl	Error_Handler
 246              	.LVL7:
 247 00da CDE7     		b	.L3
 248              	.L10:
  82:Core/Src/adc.c ****   }
 249              		.loc 1 82 5 view .LVU95
 250 00dc FFF7FEFF 		bl	Error_Handler
 251              	.LVL8:
 252 00e0 D3E7     		b	.L4
 253              	.L11:
  90:Core/Src/adc.c ****   }
 254              		.loc 1 90 5 view .LVU96
 255 00e2 FFF7FEFF 		bl	Error_Handler
 256              	.LVL9:
 257 00e6 D8E7     		b	.L5
 258              	.L12:
 108:Core/Src/adc.c ****   }
 259              		.loc 1 108 5 view .LVU97
 260 00e8 FFF7FEFF 		bl	Error_Handler
 261              	.LVL10:
 262              		.loc 1 114 1 is_stmt 0 view .LVU98
 263 00ec EEE7     		b	.L1
 264              	.L14:
 265 00ee 00BF     		.align	2
 266              	.L13:
 267 00f0 00000000 		.word	hadc1
 268              		.cfi_endproc
 269              	.LFE123:
 271              		.section	.text.HAL_ADC_MspInit,"ax",%progbits
 272              		.align	1
 273              		.global	HAL_ADC_MspInit
 274              		.syntax unified
 275              		.thumb
 276              		.thumb_func
 278              	HAL_ADC_MspInit:
 279              	.LVL11:
 280              	.LFB124:
 115:Core/Src/adc.c **** 
 116:Core/Src/adc.c **** void HAL_ADC_MspInit(ADC_HandleTypeDef* adcHandle)
 117:Core/Src/adc.c **** {
ARM GAS  C:\Users\Simio\AppData\Local\Temp\ccEdhApf.s 			page 8


 281              		.loc 1 117 1 is_stmt 1 view -0
 282              		.cfi_startproc
 283              		@ args = 0, pretend = 0, frame = 32
 284              		@ frame_needed = 0, uses_anonymous_args = 0
 285              		.loc 1 117 1 is_stmt 0 view .LVU100
 286 0000 30B5     		push	{r4, r5, lr}
 287              	.LCFI4:
 288              		.cfi_def_cfa_offset 12
 289              		.cfi_offset 4, -12
 290              		.cfi_offset 5, -8
 291              		.cfi_offset 14, -4
 292 0002 89B0     		sub	sp, sp, #36
 293              	.LCFI5:
 294              		.cfi_def_cfa_offset 48
 118:Core/Src/adc.c **** 
 119:Core/Src/adc.c ****   GPIO_InitTypeDef GPIO_InitStruct = {0};
 295              		.loc 1 119 3 is_stmt 1 view .LVU101
 296              		.loc 1 119 20 is_stmt 0 view .LVU102
 297 0004 0023     		movs	r3, #0
 298 0006 0393     		str	r3, [sp, #12]
 299 0008 0493     		str	r3, [sp, #16]
 300 000a 0593     		str	r3, [sp, #20]
 301 000c 0693     		str	r3, [sp, #24]
 302 000e 0793     		str	r3, [sp, #28]
 120:Core/Src/adc.c ****   if(adcHandle->Instance==ADC1)
 303              		.loc 1 120 3 is_stmt 1 view .LVU103
 304              		.loc 1 120 15 is_stmt 0 view .LVU104
 305 0010 0368     		ldr	r3, [r0]
 306              		.loc 1 120 5 view .LVU105
 307 0012 B3F1A04F 		cmp	r3, #1342177280
 308 0016 01D0     		beq	.L19
 309              	.LVL12:
 310              	.L15:
 121:Core/Src/adc.c ****   {
 122:Core/Src/adc.c ****   /* USER CODE BEGIN ADC1_MspInit 0 */
 123:Core/Src/adc.c **** 
 124:Core/Src/adc.c ****   /* USER CODE END ADC1_MspInit 0 */
 125:Core/Src/adc.c ****     /* ADC1 clock enable */
 126:Core/Src/adc.c ****     __HAL_RCC_ADC1_CLK_ENABLE();
 127:Core/Src/adc.c **** 
 128:Core/Src/adc.c ****     __HAL_RCC_GPIOA_CLK_ENABLE();
 129:Core/Src/adc.c ****     __HAL_RCC_GPIOB_CLK_ENABLE();
 130:Core/Src/adc.c ****     /**ADC1 GPIO Configuration
 131:Core/Src/adc.c ****     PA0     ------> ADC1_IN1
 132:Core/Src/adc.c ****     PA1     ------> ADC1_IN2
 133:Core/Src/adc.c ****     PA2     ------> ADC1_IN3
 134:Core/Src/adc.c ****     PA3     ------> ADC1_IN4
 135:Core/Src/adc.c ****     PA6     ------> ADC1_IN10
 136:Core/Src/adc.c ****     PA7     ------> ADC1_IN15
 137:Core/Src/adc.c ****     PB0     ------> ADC1_IN11
 138:Core/Src/adc.c ****     PB1     ------> ADC1_IN12
 139:Core/Src/adc.c ****     */
 140:Core/Src/adc.c ****     GPIO_InitStruct.Pin = Sense_W_Pin|MCurrent_W_Pin|Sense_V_Pin|Sense_Temp_Top_Pin
 141:Core/Src/adc.c ****                           |MCurrent_V_Pin|Sense_U_Pin;
 142:Core/Src/adc.c ****     GPIO_InitStruct.Mode = GPIO_MODE_ANALOG;
 143:Core/Src/adc.c ****     GPIO_InitStruct.Pull = GPIO_NOPULL;
 144:Core/Src/adc.c ****     HAL_GPIO_Init(GPIOA, &GPIO_InitStruct);
ARM GAS  C:\Users\Simio\AppData\Local\Temp\ccEdhApf.s 			page 9


 145:Core/Src/adc.c **** 
 146:Core/Src/adc.c ****     GPIO_InitStruct.Pin = MCurrent_U_Pin|AN_IN_Pin;
 147:Core/Src/adc.c ****     GPIO_InitStruct.Mode = GPIO_MODE_ANALOG;
 148:Core/Src/adc.c ****     GPIO_InitStruct.Pull = GPIO_NOPULL;
 149:Core/Src/adc.c ****     HAL_GPIO_Init(GPIOB, &GPIO_InitStruct);
 150:Core/Src/adc.c **** 
 151:Core/Src/adc.c ****     /* ADC1 DMA Init */
 152:Core/Src/adc.c ****     /* ADC1 Init */
 153:Core/Src/adc.c ****     hdma_adc1.Instance = DMA1_Channel1;
 154:Core/Src/adc.c ****     hdma_adc1.Init.Direction = DMA_PERIPH_TO_MEMORY;
 155:Core/Src/adc.c ****     hdma_adc1.Init.PeriphInc = DMA_PINC_DISABLE;
 156:Core/Src/adc.c ****     hdma_adc1.Init.MemInc = DMA_MINC_ENABLE;
 157:Core/Src/adc.c ****     hdma_adc1.Init.PeriphDataAlignment = DMA_PDATAALIGN_HALFWORD;
 158:Core/Src/adc.c ****     hdma_adc1.Init.MemDataAlignment = DMA_MDATAALIGN_HALFWORD;
 159:Core/Src/adc.c ****     hdma_adc1.Init.Mode = DMA_CIRCULAR;
 160:Core/Src/adc.c ****     hdma_adc1.Init.Priority = DMA_PRIORITY_HIGH;
 161:Core/Src/adc.c ****     if (HAL_DMA_Init(&hdma_adc1) != HAL_OK)
 162:Core/Src/adc.c ****     {
 163:Core/Src/adc.c ****       Error_Handler();
 164:Core/Src/adc.c ****     }
 165:Core/Src/adc.c **** 
 166:Core/Src/adc.c ****     __HAL_LINKDMA(adcHandle,DMA_Handle,hdma_adc1);
 167:Core/Src/adc.c **** 
 168:Core/Src/adc.c ****     /* ADC1 interrupt Init */
 169:Core/Src/adc.c ****     HAL_NVIC_SetPriority(ADC1_IRQn, 0, 0);
 170:Core/Src/adc.c ****     HAL_NVIC_EnableIRQ(ADC1_IRQn);
 171:Core/Src/adc.c ****   /* USER CODE BEGIN ADC1_MspInit 1 */
 172:Core/Src/adc.c **** 
 173:Core/Src/adc.c ****   /* USER CODE END ADC1_MspInit 1 */
 174:Core/Src/adc.c ****   }
 175:Core/Src/adc.c **** }
 311              		.loc 1 175 1 view .LVU106
 312 0018 09B0     		add	sp, sp, #36
 313              	.LCFI6:
 314              		.cfi_remember_state
 315              		.cfi_def_cfa_offset 12
 316              		@ sp needed
 317 001a 30BD     		pop	{r4, r5, pc}
 318              	.LVL13:
 319              	.L19:
 320              	.LCFI7:
 321              		.cfi_restore_state
 322              		.loc 1 175 1 view .LVU107
 323 001c 0446     		mov	r4, r0
 126:Core/Src/adc.c **** 
 324              		.loc 1 126 5 is_stmt 1 view .LVU108
 325              	.LBB2:
 126:Core/Src/adc.c **** 
 326              		.loc 1 126 5 view .LVU109
 126:Core/Src/adc.c **** 
 327              		.loc 1 126 5 view .LVU110
 328 001e 03F17043 		add	r3, r3, #-268435456
 329 0022 03F50433 		add	r3, r3, #135168
 330 0026 5A69     		ldr	r2, [r3, #20]
 331 0028 42F08052 		orr	r2, r2, #268435456
 332 002c 5A61     		str	r2, [r3, #20]
 126:Core/Src/adc.c **** 
ARM GAS  C:\Users\Simio\AppData\Local\Temp\ccEdhApf.s 			page 10


 333              		.loc 1 126 5 view .LVU111
 334 002e 5A69     		ldr	r2, [r3, #20]
 335 0030 02F08052 		and	r2, r2, #268435456
 336 0034 0092     		str	r2, [sp]
 126:Core/Src/adc.c **** 
 337              		.loc 1 126 5 view .LVU112
 338 0036 009A     		ldr	r2, [sp]
 339              	.LBE2:
 126:Core/Src/adc.c **** 
 340              		.loc 1 126 5 view .LVU113
 128:Core/Src/adc.c ****     __HAL_RCC_GPIOB_CLK_ENABLE();
 341              		.loc 1 128 5 view .LVU114
 342              	.LBB3:
 128:Core/Src/adc.c ****     __HAL_RCC_GPIOB_CLK_ENABLE();
 343              		.loc 1 128 5 view .LVU115
 128:Core/Src/adc.c ****     __HAL_RCC_GPIOB_CLK_ENABLE();
 344              		.loc 1 128 5 view .LVU116
 345 0038 5A69     		ldr	r2, [r3, #20]
 346 003a 42F40032 		orr	r2, r2, #131072
 347 003e 5A61     		str	r2, [r3, #20]
 128:Core/Src/adc.c ****     __HAL_RCC_GPIOB_CLK_ENABLE();
 348              		.loc 1 128 5 view .LVU117
 349 0040 5A69     		ldr	r2, [r3, #20]
 350 0042 02F40032 		and	r2, r2, #131072
 351 0046 0192     		str	r2, [sp, #4]
 128:Core/Src/adc.c ****     __HAL_RCC_GPIOB_CLK_ENABLE();
 352              		.loc 1 128 5 view .LVU118
 353 0048 019A     		ldr	r2, [sp, #4]
 354              	.LBE3:
 128:Core/Src/adc.c ****     __HAL_RCC_GPIOB_CLK_ENABLE();
 355              		.loc 1 128 5 view .LVU119
 129:Core/Src/adc.c ****     /**ADC1 GPIO Configuration
 356              		.loc 1 129 5 view .LVU120
 357              	.LBB4:
 129:Core/Src/adc.c ****     /**ADC1 GPIO Configuration
 358              		.loc 1 129 5 view .LVU121
 129:Core/Src/adc.c ****     /**ADC1 GPIO Configuration
 359              		.loc 1 129 5 view .LVU122
 360 004a 5A69     		ldr	r2, [r3, #20]
 361 004c 42F48022 		orr	r2, r2, #262144
 362 0050 5A61     		str	r2, [r3, #20]
 129:Core/Src/adc.c ****     /**ADC1 GPIO Configuration
 363              		.loc 1 129 5 view .LVU123
 364 0052 5B69     		ldr	r3, [r3, #20]
 365 0054 03F48023 		and	r3, r3, #262144
 366 0058 0293     		str	r3, [sp, #8]
 129:Core/Src/adc.c ****     /**ADC1 GPIO Configuration
 367              		.loc 1 129 5 view .LVU124
 368 005a 029B     		ldr	r3, [sp, #8]
 369              	.LBE4:
 129:Core/Src/adc.c ****     /**ADC1 GPIO Configuration
 370              		.loc 1 129 5 view .LVU125
 140:Core/Src/adc.c ****                           |MCurrent_V_Pin|Sense_U_Pin;
 371              		.loc 1 140 5 view .LVU126
 140:Core/Src/adc.c ****                           |MCurrent_V_Pin|Sense_U_Pin;
 372              		.loc 1 140 25 is_stmt 0 view .LVU127
 373 005c CF23     		movs	r3, #207
ARM GAS  C:\Users\Simio\AppData\Local\Temp\ccEdhApf.s 			page 11


 374 005e 0393     		str	r3, [sp, #12]
 142:Core/Src/adc.c ****     GPIO_InitStruct.Pull = GPIO_NOPULL;
 375              		.loc 1 142 5 is_stmt 1 view .LVU128
 142:Core/Src/adc.c ****     GPIO_InitStruct.Pull = GPIO_NOPULL;
 376              		.loc 1 142 26 is_stmt 0 view .LVU129
 377 0060 0325     		movs	r5, #3
 378 0062 0495     		str	r5, [sp, #16]
 143:Core/Src/adc.c ****     HAL_GPIO_Init(GPIOA, &GPIO_InitStruct);
 379              		.loc 1 143 5 is_stmt 1 view .LVU130
 144:Core/Src/adc.c **** 
 380              		.loc 1 144 5 view .LVU131
 381 0064 03A9     		add	r1, sp, #12
 382 0066 4FF09040 		mov	r0, #1207959552
 383              	.LVL14:
 144:Core/Src/adc.c **** 
 384              		.loc 1 144 5 is_stmt 0 view .LVU132
 385 006a FFF7FEFF 		bl	HAL_GPIO_Init
 386              	.LVL15:
 146:Core/Src/adc.c ****     GPIO_InitStruct.Mode = GPIO_MODE_ANALOG;
 387              		.loc 1 146 5 is_stmt 1 view .LVU133
 146:Core/Src/adc.c ****     GPIO_InitStruct.Mode = GPIO_MODE_ANALOG;
 388              		.loc 1 146 25 is_stmt 0 view .LVU134
 389 006e 0395     		str	r5, [sp, #12]
 147:Core/Src/adc.c ****     GPIO_InitStruct.Pull = GPIO_NOPULL;
 390              		.loc 1 147 5 is_stmt 1 view .LVU135
 147:Core/Src/adc.c ****     GPIO_InitStruct.Pull = GPIO_NOPULL;
 391              		.loc 1 147 26 is_stmt 0 view .LVU136
 392 0070 0495     		str	r5, [sp, #16]
 148:Core/Src/adc.c ****     HAL_GPIO_Init(GPIOB, &GPIO_InitStruct);
 393              		.loc 1 148 5 is_stmt 1 view .LVU137
 148:Core/Src/adc.c ****     HAL_GPIO_Init(GPIOB, &GPIO_InitStruct);
 394              		.loc 1 148 26 is_stmt 0 view .LVU138
 395 0072 0025     		movs	r5, #0
 396 0074 0595     		str	r5, [sp, #20]
 149:Core/Src/adc.c **** 
 397              		.loc 1 149 5 is_stmt 1 view .LVU139
 398 0076 03A9     		add	r1, sp, #12
 399 0078 1348     		ldr	r0, .L21
 400 007a FFF7FEFF 		bl	HAL_GPIO_Init
 401              	.LVL16:
 153:Core/Src/adc.c ****     hdma_adc1.Init.Direction = DMA_PERIPH_TO_MEMORY;
 402              		.loc 1 153 5 view .LVU140
 153:Core/Src/adc.c ****     hdma_adc1.Init.Direction = DMA_PERIPH_TO_MEMORY;
 403              		.loc 1 153 24 is_stmt 0 view .LVU141
 404 007e 1348     		ldr	r0, .L21+4
 405 0080 134B     		ldr	r3, .L21+8
 406 0082 0360     		str	r3, [r0]
 154:Core/Src/adc.c ****     hdma_adc1.Init.PeriphInc = DMA_PINC_DISABLE;
 407              		.loc 1 154 5 is_stmt 1 view .LVU142
 154:Core/Src/adc.c ****     hdma_adc1.Init.PeriphInc = DMA_PINC_DISABLE;
 408              		.loc 1 154 30 is_stmt 0 view .LVU143
 409 0084 4560     		str	r5, [r0, #4]
 155:Core/Src/adc.c ****     hdma_adc1.Init.MemInc = DMA_MINC_ENABLE;
 410              		.loc 1 155 5 is_stmt 1 view .LVU144
 155:Core/Src/adc.c ****     hdma_adc1.Init.MemInc = DMA_MINC_ENABLE;
 411              		.loc 1 155 30 is_stmt 0 view .LVU145
 412 0086 8560     		str	r5, [r0, #8]
ARM GAS  C:\Users\Simio\AppData\Local\Temp\ccEdhApf.s 			page 12


 156:Core/Src/adc.c ****     hdma_adc1.Init.PeriphDataAlignment = DMA_PDATAALIGN_HALFWORD;
 413              		.loc 1 156 5 is_stmt 1 view .LVU146
 156:Core/Src/adc.c ****     hdma_adc1.Init.PeriphDataAlignment = DMA_PDATAALIGN_HALFWORD;
 414              		.loc 1 156 27 is_stmt 0 view .LVU147
 415 0088 8023     		movs	r3, #128
 416 008a C360     		str	r3, [r0, #12]
 157:Core/Src/adc.c ****     hdma_adc1.Init.MemDataAlignment = DMA_MDATAALIGN_HALFWORD;
 417              		.loc 1 157 5 is_stmt 1 view .LVU148
 157:Core/Src/adc.c ****     hdma_adc1.Init.MemDataAlignment = DMA_MDATAALIGN_HALFWORD;
 418              		.loc 1 157 40 is_stmt 0 view .LVU149
 419 008c 4FF48073 		mov	r3, #256
 420 0090 0361     		str	r3, [r0, #16]
 158:Core/Src/adc.c ****     hdma_adc1.Init.Mode = DMA_CIRCULAR;
 421              		.loc 1 158 5 is_stmt 1 view .LVU150
 158:Core/Src/adc.c ****     hdma_adc1.Init.Mode = DMA_CIRCULAR;
 422              		.loc 1 158 37 is_stmt 0 view .LVU151
 423 0092 4FF48063 		mov	r3, #1024
 424 0096 4361     		str	r3, [r0, #20]
 159:Core/Src/adc.c ****     hdma_adc1.Init.Priority = DMA_PRIORITY_HIGH;
 425              		.loc 1 159 5 is_stmt 1 view .LVU152
 159:Core/Src/adc.c ****     hdma_adc1.Init.Priority = DMA_PRIORITY_HIGH;
 426              		.loc 1 159 25 is_stmt 0 view .LVU153
 427 0098 2023     		movs	r3, #32
 428 009a 8361     		str	r3, [r0, #24]
 160:Core/Src/adc.c ****     if (HAL_DMA_Init(&hdma_adc1) != HAL_OK)
 429              		.loc 1 160 5 is_stmt 1 view .LVU154
 160:Core/Src/adc.c ****     if (HAL_DMA_Init(&hdma_adc1) != HAL_OK)
 430              		.loc 1 160 29 is_stmt 0 view .LVU155
 431 009c 4FF40053 		mov	r3, #8192
 432 00a0 C361     		str	r3, [r0, #28]
 161:Core/Src/adc.c ****     {
 433              		.loc 1 161 5 is_stmt 1 view .LVU156
 161:Core/Src/adc.c ****     {
 434              		.loc 1 161 9 is_stmt 0 view .LVU157
 435 00a2 FFF7FEFF 		bl	HAL_DMA_Init
 436              	.LVL17:
 161:Core/Src/adc.c ****     {
 437              		.loc 1 161 8 discriminator 1 view .LVU158
 438 00a6 58B9     		cbnz	r0, .L20
 439              	.L17:
 166:Core/Src/adc.c **** 
 440              		.loc 1 166 5 is_stmt 1 view .LVU159
 166:Core/Src/adc.c **** 
 441              		.loc 1 166 5 view .LVU160
 442 00a8 084B     		ldr	r3, .L21+4
 443 00aa A363     		str	r3, [r4, #56]
 166:Core/Src/adc.c **** 
 444              		.loc 1 166 5 view .LVU161
 445 00ac 5C62     		str	r4, [r3, #36]
 166:Core/Src/adc.c **** 
 446              		.loc 1 166 5 view .LVU162
 169:Core/Src/adc.c ****     HAL_NVIC_EnableIRQ(ADC1_IRQn);
 447              		.loc 1 169 5 view .LVU163
 448 00ae 0022     		movs	r2, #0
 449 00b0 1146     		mov	r1, r2
 450 00b2 1220     		movs	r0, #18
 451 00b4 FFF7FEFF 		bl	HAL_NVIC_SetPriority
ARM GAS  C:\Users\Simio\AppData\Local\Temp\ccEdhApf.s 			page 13


 452              	.LVL18:
 170:Core/Src/adc.c ****   /* USER CODE BEGIN ADC1_MspInit 1 */
 453              		.loc 1 170 5 view .LVU164
 454 00b8 1220     		movs	r0, #18
 455 00ba FFF7FEFF 		bl	HAL_NVIC_EnableIRQ
 456              	.LVL19:
 457              		.loc 1 175 1 is_stmt 0 view .LVU165
 458 00be ABE7     		b	.L15
 459              	.L20:
 163:Core/Src/adc.c ****     }
 460              		.loc 1 163 7 is_stmt 1 view .LVU166
 461 00c0 FFF7FEFF 		bl	Error_Handler
 462              	.LVL20:
 463 00c4 F0E7     		b	.L17
 464              	.L22:
 465 00c6 00BF     		.align	2
 466              	.L21:
 467 00c8 00040048 		.word	1207960576
 468 00cc 00000000 		.word	hdma_adc1
 469 00d0 08000240 		.word	1073872904
 470              		.cfi_endproc
 471              	.LFE124:
 473              		.section	.text.HAL_ADC_MspDeInit,"ax",%progbits
 474              		.align	1
 475              		.global	HAL_ADC_MspDeInit
 476              		.syntax unified
 477              		.thumb
 478              		.thumb_func
 480              	HAL_ADC_MspDeInit:
 481              	.LVL21:
 482              	.LFB125:
 176:Core/Src/adc.c **** 
 177:Core/Src/adc.c **** void HAL_ADC_MspDeInit(ADC_HandleTypeDef* adcHandle)
 178:Core/Src/adc.c **** {
 483              		.loc 1 178 1 view -0
 484              		.cfi_startproc
 485              		@ args = 0, pretend = 0, frame = 0
 486              		@ frame_needed = 0, uses_anonymous_args = 0
 179:Core/Src/adc.c **** 
 180:Core/Src/adc.c ****   if(adcHandle->Instance==ADC1)
 487              		.loc 1 180 3 view .LVU168
 488              		.loc 1 180 15 is_stmt 0 view .LVU169
 489 0000 0368     		ldr	r3, [r0]
 490              		.loc 1 180 5 view .LVU170
 491 0002 B3F1A04F 		cmp	r3, #1342177280
 492 0006 00D0     		beq	.L29
 493 0008 7047     		bx	lr
 494              	.L29:
 178:Core/Src/adc.c **** 
 495              		.loc 1 178 1 view .LVU171
 496 000a 10B5     		push	{r4, lr}
 497              	.LCFI8:
 498              		.cfi_def_cfa_offset 8
 499              		.cfi_offset 4, -8
 500              		.cfi_offset 14, -4
 501 000c 0446     		mov	r4, r0
 181:Core/Src/adc.c ****   {
ARM GAS  C:\Users\Simio\AppData\Local\Temp\ccEdhApf.s 			page 14


 182:Core/Src/adc.c ****   /* USER CODE BEGIN ADC1_MspDeInit 0 */
 183:Core/Src/adc.c **** 
 184:Core/Src/adc.c ****   /* USER CODE END ADC1_MspDeInit 0 */
 185:Core/Src/adc.c ****     /* Peripheral clock disable */
 186:Core/Src/adc.c ****     __HAL_RCC_ADC1_CLK_DISABLE();
 502              		.loc 1 186 5 is_stmt 1 view .LVU172
 503 000e 0A4A     		ldr	r2, .L30
 504 0010 5369     		ldr	r3, [r2, #20]
 505 0012 23F08053 		bic	r3, r3, #268435456
 506 0016 5361     		str	r3, [r2, #20]
 187:Core/Src/adc.c **** 
 188:Core/Src/adc.c ****     /**ADC1 GPIO Configuration
 189:Core/Src/adc.c ****     PA0     ------> ADC1_IN1
 190:Core/Src/adc.c ****     PA1     ------> ADC1_IN2
 191:Core/Src/adc.c ****     PA2     ------> ADC1_IN3
 192:Core/Src/adc.c ****     PA3     ------> ADC1_IN4
 193:Core/Src/adc.c ****     PA6     ------> ADC1_IN10
 194:Core/Src/adc.c ****     PA7     ------> ADC1_IN15
 195:Core/Src/adc.c ****     PB0     ------> ADC1_IN11
 196:Core/Src/adc.c ****     PB1     ------> ADC1_IN12
 197:Core/Src/adc.c ****     */
 198:Core/Src/adc.c ****     HAL_GPIO_DeInit(GPIOA, Sense_W_Pin|MCurrent_W_Pin|Sense_V_Pin|Sense_Temp_Top_Pin
 507              		.loc 1 198 5 view .LVU173
 508 0018 CF21     		movs	r1, #207
 509 001a 4FF09040 		mov	r0, #1207959552
 510              	.LVL22:
 511              		.loc 1 198 5 is_stmt 0 view .LVU174
 512 001e FFF7FEFF 		bl	HAL_GPIO_DeInit
 513              	.LVL23:
 199:Core/Src/adc.c ****                           |MCurrent_V_Pin|Sense_U_Pin);
 200:Core/Src/adc.c **** 
 201:Core/Src/adc.c ****     HAL_GPIO_DeInit(GPIOB, MCurrent_U_Pin|AN_IN_Pin);
 514              		.loc 1 201 5 is_stmt 1 view .LVU175
 515 0022 0321     		movs	r1, #3
 516 0024 0548     		ldr	r0, .L30+4
 517 0026 FFF7FEFF 		bl	HAL_GPIO_DeInit
 518              	.LVL24:
 202:Core/Src/adc.c **** 
 203:Core/Src/adc.c ****     /* ADC1 DMA DeInit */
 204:Core/Src/adc.c ****     HAL_DMA_DeInit(adcHandle->DMA_Handle);
 519              		.loc 1 204 5 view .LVU176
 520 002a A06B     		ldr	r0, [r4, #56]
 521 002c FFF7FEFF 		bl	HAL_DMA_DeInit
 522              	.LVL25:
 205:Core/Src/adc.c **** 
 206:Core/Src/adc.c ****     /* ADC1 interrupt Deinit */
 207:Core/Src/adc.c ****     HAL_NVIC_DisableIRQ(ADC1_IRQn);
 523              		.loc 1 207 5 view .LVU177
 524 0030 1220     		movs	r0, #18
 525 0032 FFF7FEFF 		bl	HAL_NVIC_DisableIRQ
 526              	.LVL26:
 208:Core/Src/adc.c ****   /* USER CODE BEGIN ADC1_MspDeInit 1 */
 209:Core/Src/adc.c **** 
 210:Core/Src/adc.c ****   /* USER CODE END ADC1_MspDeInit 1 */
 211:Core/Src/adc.c ****   }
 212:Core/Src/adc.c **** }
 527              		.loc 1 212 1 is_stmt 0 view .LVU178
ARM GAS  C:\Users\Simio\AppData\Local\Temp\ccEdhApf.s 			page 15


 528 0036 10BD     		pop	{r4, pc}
 529              	.LVL27:
 530              	.L31:
 531              		.loc 1 212 1 view .LVU179
 532              		.align	2
 533              	.L30:
 534 0038 00100240 		.word	1073876992
 535 003c 00040048 		.word	1207960576
 536              		.cfi_endproc
 537              	.LFE125:
 539              		.global	hdma_adc1
 540              		.section	.bss.hdma_adc1,"aw",%nobits
 541              		.align	2
 544              	hdma_adc1:
 545 0000 00000000 		.space	68
 545      00000000 
 545      00000000 
 545      00000000 
 545      00000000 
 546              		.global	hadc1
 547              		.section	.bss.hadc1,"aw",%nobits
 548              		.align	2
 551              	hadc1:
 552 0000 00000000 		.space	80
 552      00000000 
 552      00000000 
 552      00000000 
 552      00000000 
 553              		.text
 554              	.Letext0:
 555              		.file 2 "Drivers/CMSIS/Device/ST/STM32F3xx/Include/stm32f302x8.h"
 556              		.file 3 "C:/toolchain/arm_gnu_toolchain/arm-none-eabi/include/machine/_default_types.h"
 557              		.file 4 "C:/toolchain/arm_gnu_toolchain/arm-none-eabi/include/sys/_stdint.h"
 558              		.file 5 "Drivers/CMSIS/Device/ST/STM32F3xx/Include/stm32f3xx.h"
 559              		.file 6 "Drivers/STM32F3xx_HAL_Driver/Inc/stm32f3xx_hal_def.h"
 560              		.file 7 "Drivers/STM32F3xx_HAL_Driver/Inc/stm32f3xx_hal_gpio.h"
 561              		.file 8 "Drivers/STM32F3xx_HAL_Driver/Inc/stm32f3xx_hal_dma.h"
 562              		.file 9 "Drivers/STM32F3xx_HAL_Driver/Inc/stm32f3xx_hal_adc_ex.h"
 563              		.file 10 "Drivers/STM32F3xx_HAL_Driver/Inc/stm32f3xx_hal_adc.h"
 564              		.file 11 "Core/Inc/adc.h"
 565              		.file 12 "Drivers/STM32F3xx_HAL_Driver/Inc/stm32f3xx_hal_cortex.h"
 566              		.file 13 "Core/Inc/main.h"
 567              		.file 14 "<built-in>"
ARM GAS  C:\Users\Simio\AppData\Local\Temp\ccEdhApf.s 			page 16

