ARM GAS  C:\Users\Simio\AppData\Local\Temp\ccX4v4Yy.s 			page 1


   1              		.cpu cortex-m4
   2              		.arch armv7e-m
   3              		.fpu fpv4-sp-d16
   4              		.eabi_attribute 27, 1
   5              		.eabi_attribute 28, 1
   6              		.eabi_attribute 20, 1
   7              		.eabi_attribute 21, 1
   8              		.eabi_attribute 23, 3
   9              		.eabi_attribute 24, 1
  10              		.eabi_attribute 25, 1
  11              		.eabi_attribute 26, 1
  12              		.eabi_attribute 30, 1
  13              		.eabi_attribute 34, 1
  14              		.eabi_attribute 18, 4
  15              		.file	"usart.c"
  16              		.text
  17              	.Ltext0:
  18              		.cfi_sections	.debug_frame
  19              		.file 1 "Core/Src/usart.c"
  20              		.section	.text.MX_USART1_UART_Init,"ax",%progbits
  21              		.align	1
  22              		.global	MX_USART1_UART_Init
  23              		.syntax unified
  24              		.thumb
  25              		.thumb_func
  27              	MX_USART1_UART_Init:
  28              	.LFB123:
   1:Core/Src/usart.c **** /* USER CODE BEGIN Header */
   2:Core/Src/usart.c **** /**
   3:Core/Src/usart.c ****   ******************************************************************************
   4:Core/Src/usart.c ****   * @file    usart.c
   5:Core/Src/usart.c ****   * @brief   This file provides code for the configuration
   6:Core/Src/usart.c ****   *          of the USART instances.
   7:Core/Src/usart.c ****   ******************************************************************************
   8:Core/Src/usart.c ****   * @attention
   9:Core/Src/usart.c ****   *
  10:Core/Src/usart.c ****   * Copyright (c) 2022 STMicroelectronics.
  11:Core/Src/usart.c ****   * All rights reserved.
  12:Core/Src/usart.c ****   *
  13:Core/Src/usart.c ****   * This software is licensed under terms that can be found in the LICENSE file
  14:Core/Src/usart.c ****   * in the root directory of this software component.
  15:Core/Src/usart.c ****   * If no LICENSE file comes with this software, it is provided AS-IS.
  16:Core/Src/usart.c ****   *
  17:Core/Src/usart.c ****   ******************************************************************************
  18:Core/Src/usart.c ****   */
  19:Core/Src/usart.c **** /* USER CODE END Header */
  20:Core/Src/usart.c **** /* Includes ------------------------------------------------------------------*/
  21:Core/Src/usart.c **** #include "usart.h"
  22:Core/Src/usart.c **** 
  23:Core/Src/usart.c **** /* USER CODE BEGIN 0 */
  24:Core/Src/usart.c **** 
  25:Core/Src/usart.c **** /* USER CODE END 0 */
  26:Core/Src/usart.c **** 
  27:Core/Src/usart.c **** UART_HandleTypeDef huart1;
  28:Core/Src/usart.c **** DMA_HandleTypeDef hdma_usart1_tx;
  29:Core/Src/usart.c **** 
  30:Core/Src/usart.c **** /* USART1 init function */
ARM GAS  C:\Users\Simio\AppData\Local\Temp\ccX4v4Yy.s 			page 2


  31:Core/Src/usart.c **** 
  32:Core/Src/usart.c **** void MX_USART1_UART_Init(void)
  33:Core/Src/usart.c **** {
  29              		.loc 1 33 1 view -0
  30              		.cfi_startproc
  31              		@ args = 0, pretend = 0, frame = 0
  32              		@ frame_needed = 0, uses_anonymous_args = 0
  33 0000 08B5     		push	{r3, lr}
  34              	.LCFI0:
  35              		.cfi_def_cfa_offset 8
  36              		.cfi_offset 3, -8
  37              		.cfi_offset 14, -4
  34:Core/Src/usart.c **** 
  35:Core/Src/usart.c ****   /* USER CODE BEGIN USART1_Init 0 */
  36:Core/Src/usart.c **** 
  37:Core/Src/usart.c ****   /* USER CODE END USART1_Init 0 */
  38:Core/Src/usart.c **** 
  39:Core/Src/usart.c ****   /* USER CODE BEGIN USART1_Init 1 */
  40:Core/Src/usart.c **** 
  41:Core/Src/usart.c ****   /* USER CODE END USART1_Init 1 */
  42:Core/Src/usart.c ****   huart1.Instance = USART1;
  38              		.loc 1 42 3 view .LVU1
  39              		.loc 1 42 19 is_stmt 0 view .LVU2
  40 0002 0B48     		ldr	r0, .L5
  41 0004 0B4B     		ldr	r3, .L5+4
  42 0006 0360     		str	r3, [r0]
  43:Core/Src/usart.c ****   huart1.Init.BaudRate = 256000;
  43              		.loc 1 43 3 is_stmt 1 view .LVU3
  44              		.loc 1 43 24 is_stmt 0 view .LVU4
  45 0008 4FF47A33 		mov	r3, #256000
  46 000c 4360     		str	r3, [r0, #4]
  44:Core/Src/usart.c ****   huart1.Init.WordLength = UART_WORDLENGTH_8B;
  47              		.loc 1 44 3 is_stmt 1 view .LVU5
  48              		.loc 1 44 26 is_stmt 0 view .LVU6
  49 000e 0023     		movs	r3, #0
  50 0010 8360     		str	r3, [r0, #8]
  45:Core/Src/usart.c ****   huart1.Init.StopBits = UART_STOPBITS_1;
  51              		.loc 1 45 3 is_stmt 1 view .LVU7
  52              		.loc 1 45 24 is_stmt 0 view .LVU8
  53 0012 C360     		str	r3, [r0, #12]
  46:Core/Src/usart.c ****   huart1.Init.Parity = UART_PARITY_NONE;
  54              		.loc 1 46 3 is_stmt 1 view .LVU9
  55              		.loc 1 46 22 is_stmt 0 view .LVU10
  56 0014 0361     		str	r3, [r0, #16]
  47:Core/Src/usart.c ****   huart1.Init.Mode = UART_MODE_TX_RX;
  57              		.loc 1 47 3 is_stmt 1 view .LVU11
  58              		.loc 1 47 20 is_stmt 0 view .LVU12
  59 0016 0C22     		movs	r2, #12
  60 0018 4261     		str	r2, [r0, #20]
  48:Core/Src/usart.c ****   huart1.Init.HwFlowCtl = UART_HWCONTROL_NONE;
  61              		.loc 1 48 3 is_stmt 1 view .LVU13
  62              		.loc 1 48 25 is_stmt 0 view .LVU14
  63 001a 8361     		str	r3, [r0, #24]
  49:Core/Src/usart.c ****   huart1.Init.OverSampling = UART_OVERSAMPLING_16;
  64              		.loc 1 49 3 is_stmt 1 view .LVU15
  65              		.loc 1 49 28 is_stmt 0 view .LVU16
  66 001c C361     		str	r3, [r0, #28]
ARM GAS  C:\Users\Simio\AppData\Local\Temp\ccX4v4Yy.s 			page 3


  50:Core/Src/usart.c ****   huart1.Init.OneBitSampling = UART_ONE_BIT_SAMPLE_DISABLE;
  67              		.loc 1 50 3 is_stmt 1 view .LVU17
  68              		.loc 1 50 30 is_stmt 0 view .LVU18
  69 001e 0362     		str	r3, [r0, #32]
  51:Core/Src/usart.c ****   huart1.AdvancedInit.AdvFeatureInit = UART_ADVFEATURE_NO_INIT;
  70              		.loc 1 51 3 is_stmt 1 view .LVU19
  71              		.loc 1 51 38 is_stmt 0 view .LVU20
  72 0020 4362     		str	r3, [r0, #36]
  52:Core/Src/usart.c ****   if (HAL_UART_Init(&huart1) != HAL_OK)
  73              		.loc 1 52 3 is_stmt 1 view .LVU21
  74              		.loc 1 52 7 is_stmt 0 view .LVU22
  75 0022 FFF7FEFF 		bl	HAL_UART_Init
  76              	.LVL0:
  77              		.loc 1 52 6 discriminator 1 view .LVU23
  78 0026 00B9     		cbnz	r0, .L4
  79              	.L1:
  53:Core/Src/usart.c ****   {
  54:Core/Src/usart.c ****     Error_Handler();
  55:Core/Src/usart.c ****   }
  56:Core/Src/usart.c ****   /* USER CODE BEGIN USART1_Init 2 */
  57:Core/Src/usart.c **** 
  58:Core/Src/usart.c ****   /* USER CODE END USART1_Init 2 */
  59:Core/Src/usart.c **** 
  60:Core/Src/usart.c **** }
  80              		.loc 1 60 1 view .LVU24
  81 0028 08BD     		pop	{r3, pc}
  82              	.L4:
  54:Core/Src/usart.c ****   }
  83              		.loc 1 54 5 is_stmt 1 view .LVU25
  84 002a FFF7FEFF 		bl	Error_Handler
  85              	.LVL1:
  86              		.loc 1 60 1 is_stmt 0 view .LVU26
  87 002e FBE7     		b	.L1
  88              	.L6:
  89              		.align	2
  90              	.L5:
  91 0030 00000000 		.word	huart1
  92 0034 00380140 		.word	1073821696
  93              		.cfi_endproc
  94              	.LFE123:
  96              		.section	.text.HAL_UART_MspInit,"ax",%progbits
  97              		.align	1
  98              		.global	HAL_UART_MspInit
  99              		.syntax unified
 100              		.thumb
 101              		.thumb_func
 103              	HAL_UART_MspInit:
 104              	.LVL2:
 105              	.LFB124:
  61:Core/Src/usart.c **** 
  62:Core/Src/usart.c **** void HAL_UART_MspInit(UART_HandleTypeDef* uartHandle)
  63:Core/Src/usart.c **** {
 106              		.loc 1 63 1 is_stmt 1 view -0
 107              		.cfi_startproc
 108              		@ args = 0, pretend = 0, frame = 32
 109              		@ frame_needed = 0, uses_anonymous_args = 0
 110              		.loc 1 63 1 is_stmt 0 view .LVU28
ARM GAS  C:\Users\Simio\AppData\Local\Temp\ccX4v4Yy.s 			page 4


 111 0000 10B5     		push	{r4, lr}
 112              	.LCFI1:
 113              		.cfi_def_cfa_offset 8
 114              		.cfi_offset 4, -8
 115              		.cfi_offset 14, -4
 116 0002 88B0     		sub	sp, sp, #32
 117              	.LCFI2:
 118              		.cfi_def_cfa_offset 40
  64:Core/Src/usart.c **** 
  65:Core/Src/usart.c ****   GPIO_InitTypeDef GPIO_InitStruct = {0};
 119              		.loc 1 65 3 is_stmt 1 view .LVU29
 120              		.loc 1 65 20 is_stmt 0 view .LVU30
 121 0004 0023     		movs	r3, #0
 122 0006 0393     		str	r3, [sp, #12]
 123 0008 0493     		str	r3, [sp, #16]
 124 000a 0593     		str	r3, [sp, #20]
 125 000c 0693     		str	r3, [sp, #24]
 126 000e 0793     		str	r3, [sp, #28]
  66:Core/Src/usart.c ****   if(uartHandle->Instance==USART1)
 127              		.loc 1 66 3 is_stmt 1 view .LVU31
 128              		.loc 1 66 16 is_stmt 0 view .LVU32
 129 0010 0268     		ldr	r2, [r0]
 130              		.loc 1 66 5 view .LVU33
 131 0012 224B     		ldr	r3, .L13
 132 0014 9A42     		cmp	r2, r3
 133 0016 01D0     		beq	.L11
 134              	.LVL3:
 135              	.L7:
  67:Core/Src/usart.c ****   {
  68:Core/Src/usart.c ****   /* USER CODE BEGIN USART1_MspInit 0 */
  69:Core/Src/usart.c **** 
  70:Core/Src/usart.c ****   /* USER CODE END USART1_MspInit 0 */
  71:Core/Src/usart.c ****     /* USART1 clock enable */
  72:Core/Src/usart.c ****     __HAL_RCC_USART1_CLK_ENABLE();
  73:Core/Src/usart.c **** 
  74:Core/Src/usart.c ****     __HAL_RCC_GPIOB_CLK_ENABLE();
  75:Core/Src/usart.c ****     /**USART1 GPIO Configuration
  76:Core/Src/usart.c ****     PB6     ------> USART1_TX
  77:Core/Src/usart.c ****     PB7     ------> USART1_RX
  78:Core/Src/usart.c ****     */
  79:Core/Src/usart.c ****     GPIO_InitStruct.Pin = GPIO_PIN_6|GPIO_PIN_7;
  80:Core/Src/usart.c ****     GPIO_InitStruct.Mode = GPIO_MODE_AF_PP;
  81:Core/Src/usart.c ****     GPIO_InitStruct.Pull = GPIO_NOPULL;
  82:Core/Src/usart.c ****     GPIO_InitStruct.Speed = GPIO_SPEED_FREQ_HIGH;
  83:Core/Src/usart.c ****     GPIO_InitStruct.Alternate = GPIO_AF7_USART1;
  84:Core/Src/usart.c ****     HAL_GPIO_Init(GPIOB, &GPIO_InitStruct);
  85:Core/Src/usart.c **** 
  86:Core/Src/usart.c ****     /* USART1 DMA Init */
  87:Core/Src/usart.c ****     /* USART1_TX Init */
  88:Core/Src/usart.c ****     hdma_usart1_tx.Instance = DMA1_Channel4;
  89:Core/Src/usart.c ****     hdma_usart1_tx.Init.Direction = DMA_MEMORY_TO_PERIPH;
  90:Core/Src/usart.c ****     hdma_usart1_tx.Init.PeriphInc = DMA_PINC_DISABLE;
  91:Core/Src/usart.c ****     hdma_usart1_tx.Init.MemInc = DMA_MINC_ENABLE;
  92:Core/Src/usart.c ****     hdma_usart1_tx.Init.PeriphDataAlignment = DMA_PDATAALIGN_BYTE;
  93:Core/Src/usart.c ****     hdma_usart1_tx.Init.MemDataAlignment = DMA_MDATAALIGN_BYTE;
  94:Core/Src/usart.c ****     hdma_usart1_tx.Init.Mode = DMA_NORMAL;
  95:Core/Src/usart.c ****     hdma_usart1_tx.Init.Priority = DMA_PRIORITY_LOW;
ARM GAS  C:\Users\Simio\AppData\Local\Temp\ccX4v4Yy.s 			page 5


  96:Core/Src/usart.c ****     if (HAL_DMA_Init(&hdma_usart1_tx) != HAL_OK)
  97:Core/Src/usart.c ****     {
  98:Core/Src/usart.c ****       Error_Handler();
  99:Core/Src/usart.c ****     }
 100:Core/Src/usart.c **** 
 101:Core/Src/usart.c ****     __HAL_LINKDMA(uartHandle,hdmatx,hdma_usart1_tx);
 102:Core/Src/usart.c **** 
 103:Core/Src/usart.c ****     /* USART1 interrupt Init */
 104:Core/Src/usart.c ****     HAL_NVIC_SetPriority(USART1_IRQn, 0, 0);
 105:Core/Src/usart.c ****     HAL_NVIC_EnableIRQ(USART1_IRQn);
 106:Core/Src/usart.c ****   /* USER CODE BEGIN USART1_MspInit 1 */
 107:Core/Src/usart.c **** 
 108:Core/Src/usart.c ****   /* USER CODE END USART1_MspInit 1 */
 109:Core/Src/usart.c ****   }
 110:Core/Src/usart.c **** }
 136              		.loc 1 110 1 view .LVU34
 137 0018 08B0     		add	sp, sp, #32
 138              	.LCFI3:
 139              		.cfi_remember_state
 140              		.cfi_def_cfa_offset 8
 141              		@ sp needed
 142 001a 10BD     		pop	{r4, pc}
 143              	.LVL4:
 144              	.L11:
 145              	.LCFI4:
 146              		.cfi_restore_state
 147              		.loc 1 110 1 view .LVU35
 148 001c 0446     		mov	r4, r0
  72:Core/Src/usart.c **** 
 149              		.loc 1 72 5 is_stmt 1 view .LVU36
 150              	.LBB2:
  72:Core/Src/usart.c **** 
 151              		.loc 1 72 5 view .LVU37
  72:Core/Src/usart.c **** 
 152              		.loc 1 72 5 view .LVU38
 153 001e 03F55843 		add	r3, r3, #55296
 154 0022 9A69     		ldr	r2, [r3, #24]
 155 0024 42F48042 		orr	r2, r2, #16384
 156 0028 9A61     		str	r2, [r3, #24]
  72:Core/Src/usart.c **** 
 157              		.loc 1 72 5 view .LVU39
 158 002a 9A69     		ldr	r2, [r3, #24]
 159 002c 02F48042 		and	r2, r2, #16384
 160 0030 0192     		str	r2, [sp, #4]
  72:Core/Src/usart.c **** 
 161              		.loc 1 72 5 view .LVU40
 162 0032 019A     		ldr	r2, [sp, #4]
 163              	.LBE2:
  72:Core/Src/usart.c **** 
 164              		.loc 1 72 5 view .LVU41
  74:Core/Src/usart.c ****     /**USART1 GPIO Configuration
 165              		.loc 1 74 5 view .LVU42
 166              	.LBB3:
  74:Core/Src/usart.c ****     /**USART1 GPIO Configuration
 167              		.loc 1 74 5 view .LVU43
  74:Core/Src/usart.c ****     /**USART1 GPIO Configuration
 168              		.loc 1 74 5 view .LVU44
ARM GAS  C:\Users\Simio\AppData\Local\Temp\ccX4v4Yy.s 			page 6


 169 0034 5A69     		ldr	r2, [r3, #20]
 170 0036 42F48022 		orr	r2, r2, #262144
 171 003a 5A61     		str	r2, [r3, #20]
  74:Core/Src/usart.c ****     /**USART1 GPIO Configuration
 172              		.loc 1 74 5 view .LVU45
 173 003c 5B69     		ldr	r3, [r3, #20]
 174 003e 03F48023 		and	r3, r3, #262144
 175 0042 0293     		str	r3, [sp, #8]
  74:Core/Src/usart.c ****     /**USART1 GPIO Configuration
 176              		.loc 1 74 5 view .LVU46
 177 0044 029B     		ldr	r3, [sp, #8]
 178              	.LBE3:
  74:Core/Src/usart.c ****     /**USART1 GPIO Configuration
 179              		.loc 1 74 5 view .LVU47
  79:Core/Src/usart.c ****     GPIO_InitStruct.Mode = GPIO_MODE_AF_PP;
 180              		.loc 1 79 5 view .LVU48
  79:Core/Src/usart.c ****     GPIO_InitStruct.Mode = GPIO_MODE_AF_PP;
 181              		.loc 1 79 25 is_stmt 0 view .LVU49
 182 0046 C023     		movs	r3, #192
 183 0048 0393     		str	r3, [sp, #12]
  80:Core/Src/usart.c ****     GPIO_InitStruct.Pull = GPIO_NOPULL;
 184              		.loc 1 80 5 is_stmt 1 view .LVU50
  80:Core/Src/usart.c ****     GPIO_InitStruct.Pull = GPIO_NOPULL;
 185              		.loc 1 80 26 is_stmt 0 view .LVU51
 186 004a 0223     		movs	r3, #2
 187 004c 0493     		str	r3, [sp, #16]
  81:Core/Src/usart.c ****     GPIO_InitStruct.Speed = GPIO_SPEED_FREQ_HIGH;
 188              		.loc 1 81 5 is_stmt 1 view .LVU52
  82:Core/Src/usart.c ****     GPIO_InitStruct.Alternate = GPIO_AF7_USART1;
 189              		.loc 1 82 5 view .LVU53
  82:Core/Src/usart.c ****     GPIO_InitStruct.Alternate = GPIO_AF7_USART1;
 190              		.loc 1 82 27 is_stmt 0 view .LVU54
 191 004e 0323     		movs	r3, #3
 192 0050 0693     		str	r3, [sp, #24]
  83:Core/Src/usart.c ****     HAL_GPIO_Init(GPIOB, &GPIO_InitStruct);
 193              		.loc 1 83 5 is_stmt 1 view .LVU55
  83:Core/Src/usart.c ****     HAL_GPIO_Init(GPIOB, &GPIO_InitStruct);
 194              		.loc 1 83 31 is_stmt 0 view .LVU56
 195 0052 0723     		movs	r3, #7
 196 0054 0793     		str	r3, [sp, #28]
  84:Core/Src/usart.c **** 
 197              		.loc 1 84 5 is_stmt 1 view .LVU57
 198 0056 03A9     		add	r1, sp, #12
 199 0058 1148     		ldr	r0, .L13+4
 200              	.LVL5:
  84:Core/Src/usart.c **** 
 201              		.loc 1 84 5 is_stmt 0 view .LVU58
 202 005a FFF7FEFF 		bl	HAL_GPIO_Init
 203              	.LVL6:
  88:Core/Src/usart.c ****     hdma_usart1_tx.Init.Direction = DMA_MEMORY_TO_PERIPH;
 204              		.loc 1 88 5 is_stmt 1 view .LVU59
  88:Core/Src/usart.c ****     hdma_usart1_tx.Init.Direction = DMA_MEMORY_TO_PERIPH;
 205              		.loc 1 88 29 is_stmt 0 view .LVU60
 206 005e 1148     		ldr	r0, .L13+8
 207 0060 114B     		ldr	r3, .L13+12
 208 0062 0360     		str	r3, [r0]
  89:Core/Src/usart.c ****     hdma_usart1_tx.Init.PeriphInc = DMA_PINC_DISABLE;
ARM GAS  C:\Users\Simio\AppData\Local\Temp\ccX4v4Yy.s 			page 7


 209              		.loc 1 89 5 is_stmt 1 view .LVU61
  89:Core/Src/usart.c ****     hdma_usart1_tx.Init.PeriphInc = DMA_PINC_DISABLE;
 210              		.loc 1 89 35 is_stmt 0 view .LVU62
 211 0064 1023     		movs	r3, #16
 212 0066 4360     		str	r3, [r0, #4]
  90:Core/Src/usart.c ****     hdma_usart1_tx.Init.MemInc = DMA_MINC_ENABLE;
 213              		.loc 1 90 5 is_stmt 1 view .LVU63
  90:Core/Src/usart.c ****     hdma_usart1_tx.Init.MemInc = DMA_MINC_ENABLE;
 214              		.loc 1 90 35 is_stmt 0 view .LVU64
 215 0068 0023     		movs	r3, #0
 216 006a 8360     		str	r3, [r0, #8]
  91:Core/Src/usart.c ****     hdma_usart1_tx.Init.PeriphDataAlignment = DMA_PDATAALIGN_BYTE;
 217              		.loc 1 91 5 is_stmt 1 view .LVU65
  91:Core/Src/usart.c ****     hdma_usart1_tx.Init.PeriphDataAlignment = DMA_PDATAALIGN_BYTE;
 218              		.loc 1 91 32 is_stmt 0 view .LVU66
 219 006c 8022     		movs	r2, #128
 220 006e C260     		str	r2, [r0, #12]
  92:Core/Src/usart.c ****     hdma_usart1_tx.Init.MemDataAlignment = DMA_MDATAALIGN_BYTE;
 221              		.loc 1 92 5 is_stmt 1 view .LVU67
  92:Core/Src/usart.c ****     hdma_usart1_tx.Init.MemDataAlignment = DMA_MDATAALIGN_BYTE;
 222              		.loc 1 92 45 is_stmt 0 view .LVU68
 223 0070 0361     		str	r3, [r0, #16]
  93:Core/Src/usart.c ****     hdma_usart1_tx.Init.Mode = DMA_NORMAL;
 224              		.loc 1 93 5 is_stmt 1 view .LVU69
  93:Core/Src/usart.c ****     hdma_usart1_tx.Init.Mode = DMA_NORMAL;
 225              		.loc 1 93 42 is_stmt 0 view .LVU70
 226 0072 4361     		str	r3, [r0, #20]
  94:Core/Src/usart.c ****     hdma_usart1_tx.Init.Priority = DMA_PRIORITY_LOW;
 227              		.loc 1 94 5 is_stmt 1 view .LVU71
  94:Core/Src/usart.c ****     hdma_usart1_tx.Init.Priority = DMA_PRIORITY_LOW;
 228              		.loc 1 94 30 is_stmt 0 view .LVU72
 229 0074 8361     		str	r3, [r0, #24]
  95:Core/Src/usart.c ****     if (HAL_DMA_Init(&hdma_usart1_tx) != HAL_OK)
 230              		.loc 1 95 5 is_stmt 1 view .LVU73
  95:Core/Src/usart.c ****     if (HAL_DMA_Init(&hdma_usart1_tx) != HAL_OK)
 231              		.loc 1 95 34 is_stmt 0 view .LVU74
 232 0076 C361     		str	r3, [r0, #28]
  96:Core/Src/usart.c ****     {
 233              		.loc 1 96 5 is_stmt 1 view .LVU75
  96:Core/Src/usart.c ****     {
 234              		.loc 1 96 9 is_stmt 0 view .LVU76
 235 0078 FFF7FEFF 		bl	HAL_DMA_Init
 236              	.LVL7:
  96:Core/Src/usart.c ****     {
 237              		.loc 1 96 8 discriminator 1 view .LVU77
 238 007c 58B9     		cbnz	r0, .L12
 239              	.L9:
 101:Core/Src/usart.c **** 
 240              		.loc 1 101 5 is_stmt 1 view .LVU78
 101:Core/Src/usart.c **** 
 241              		.loc 1 101 5 view .LVU79
 242 007e 094B     		ldr	r3, .L13+8
 243 0080 2367     		str	r3, [r4, #112]
 101:Core/Src/usart.c **** 
 244              		.loc 1 101 5 view .LVU80
 245 0082 5C62     		str	r4, [r3, #36]
 101:Core/Src/usart.c **** 
ARM GAS  C:\Users\Simio\AppData\Local\Temp\ccX4v4Yy.s 			page 8


 246              		.loc 1 101 5 view .LVU81
 104:Core/Src/usart.c ****     HAL_NVIC_EnableIRQ(USART1_IRQn);
 247              		.loc 1 104 5 view .LVU82
 248 0084 0022     		movs	r2, #0
 249 0086 1146     		mov	r1, r2
 250 0088 2520     		movs	r0, #37
 251 008a FFF7FEFF 		bl	HAL_NVIC_SetPriority
 252              	.LVL8:
 105:Core/Src/usart.c ****   /* USER CODE BEGIN USART1_MspInit 1 */
 253              		.loc 1 105 5 view .LVU83
 254 008e 2520     		movs	r0, #37
 255 0090 FFF7FEFF 		bl	HAL_NVIC_EnableIRQ
 256              	.LVL9:
 257              		.loc 1 110 1 is_stmt 0 view .LVU84
 258 0094 C0E7     		b	.L7
 259              	.L12:
  98:Core/Src/usart.c ****     }
 260              		.loc 1 98 7 is_stmt 1 view .LVU85
 261 0096 FFF7FEFF 		bl	Error_Handler
 262              	.LVL10:
 263 009a F0E7     		b	.L9
 264              	.L14:
 265              		.align	2
 266              	.L13:
 267 009c 00380140 		.word	1073821696
 268 00a0 00040048 		.word	1207960576
 269 00a4 00000000 		.word	hdma_usart1_tx
 270 00a8 44000240 		.word	1073872964
 271              		.cfi_endproc
 272              	.LFE124:
 274              		.section	.text.HAL_UART_MspDeInit,"ax",%progbits
 275              		.align	1
 276              		.global	HAL_UART_MspDeInit
 277              		.syntax unified
 278              		.thumb
 279              		.thumb_func
 281              	HAL_UART_MspDeInit:
 282              	.LVL11:
 283              	.LFB125:
 111:Core/Src/usart.c **** 
 112:Core/Src/usart.c **** void HAL_UART_MspDeInit(UART_HandleTypeDef* uartHandle)
 113:Core/Src/usart.c **** {
 284              		.loc 1 113 1 view -0
 285              		.cfi_startproc
 286              		@ args = 0, pretend = 0, frame = 0
 287              		@ frame_needed = 0, uses_anonymous_args = 0
 114:Core/Src/usart.c **** 
 115:Core/Src/usart.c ****   if(uartHandle->Instance==USART1)
 288              		.loc 1 115 3 view .LVU87
 289              		.loc 1 115 16 is_stmt 0 view .LVU88
 290 0000 0268     		ldr	r2, [r0]
 291              		.loc 1 115 5 view .LVU89
 292 0002 0B4B     		ldr	r3, .L22
 293 0004 9A42     		cmp	r2, r3
 294 0006 00D0     		beq	.L21
 295 0008 7047     		bx	lr
 296              	.L21:
ARM GAS  C:\Users\Simio\AppData\Local\Temp\ccX4v4Yy.s 			page 9


 113:Core/Src/usart.c **** 
 297              		.loc 1 113 1 view .LVU90
 298 000a 10B5     		push	{r4, lr}
 299              	.LCFI5:
 300              		.cfi_def_cfa_offset 8
 301              		.cfi_offset 4, -8
 302              		.cfi_offset 14, -4
 303 000c 0446     		mov	r4, r0
 116:Core/Src/usart.c ****   {
 117:Core/Src/usart.c ****   /* USER CODE BEGIN USART1_MspDeInit 0 */
 118:Core/Src/usart.c **** 
 119:Core/Src/usart.c ****   /* USER CODE END USART1_MspDeInit 0 */
 120:Core/Src/usart.c ****     /* Peripheral clock disable */
 121:Core/Src/usart.c ****     __HAL_RCC_USART1_CLK_DISABLE();
 304              		.loc 1 121 5 is_stmt 1 view .LVU91
 305 000e 094A     		ldr	r2, .L22+4
 306 0010 9369     		ldr	r3, [r2, #24]
 307 0012 23F48043 		bic	r3, r3, #16384
 308 0016 9361     		str	r3, [r2, #24]
 122:Core/Src/usart.c **** 
 123:Core/Src/usart.c ****     /**USART1 GPIO Configuration
 124:Core/Src/usart.c ****     PB6     ------> USART1_TX
 125:Core/Src/usart.c ****     PB7     ------> USART1_RX
 126:Core/Src/usart.c ****     */
 127:Core/Src/usart.c ****     HAL_GPIO_DeInit(GPIOB, GPIO_PIN_6|GPIO_PIN_7);
 309              		.loc 1 127 5 view .LVU92
 310 0018 C021     		movs	r1, #192
 311 001a 0748     		ldr	r0, .L22+8
 312              	.LVL12:
 313              		.loc 1 127 5 is_stmt 0 view .LVU93
 314 001c FFF7FEFF 		bl	HAL_GPIO_DeInit
 315              	.LVL13:
 128:Core/Src/usart.c **** 
 129:Core/Src/usart.c ****     /* USART1 DMA DeInit */
 130:Core/Src/usart.c ****     HAL_DMA_DeInit(uartHandle->hdmatx);
 316              		.loc 1 130 5 is_stmt 1 view .LVU94
 317 0020 206F     		ldr	r0, [r4, #112]
 318 0022 FFF7FEFF 		bl	HAL_DMA_DeInit
 319              	.LVL14:
 131:Core/Src/usart.c **** 
 132:Core/Src/usart.c ****     /* USART1 interrupt Deinit */
 133:Core/Src/usart.c ****     HAL_NVIC_DisableIRQ(USART1_IRQn);
 320              		.loc 1 133 5 view .LVU95
 321 0026 2520     		movs	r0, #37
 322 0028 FFF7FEFF 		bl	HAL_NVIC_DisableIRQ
 323              	.LVL15:
 134:Core/Src/usart.c ****   /* USER CODE BEGIN USART1_MspDeInit 1 */
 135:Core/Src/usart.c **** 
 136:Core/Src/usart.c ****   /* USER CODE END USART1_MspDeInit 1 */
 137:Core/Src/usart.c ****   }
 138:Core/Src/usart.c **** }
 324              		.loc 1 138 1 is_stmt 0 view .LVU96
 325 002c 10BD     		pop	{r4, pc}
 326              	.LVL16:
 327              	.L23:
 328              		.loc 1 138 1 view .LVU97
 329 002e 00BF     		.align	2
ARM GAS  C:\Users\Simio\AppData\Local\Temp\ccX4v4Yy.s 			page 10


 330              	.L22:
 331 0030 00380140 		.word	1073821696
 332 0034 00100240 		.word	1073876992
 333 0038 00040048 		.word	1207960576
 334              		.cfi_endproc
 335              	.LFE125:
 337              		.global	hdma_usart1_tx
 338              		.section	.bss.hdma_usart1_tx,"aw",%nobits
 339              		.align	2
 342              	hdma_usart1_tx:
 343 0000 00000000 		.space	68
 343      00000000 
 343      00000000 
 343      00000000 
 343      00000000 
 344              		.global	huart1
 345              		.section	.bss.huart1,"aw",%nobits
 346              		.align	2
 349              	huart1:
 350 0000 00000000 		.space	136
 350      00000000 
 350      00000000 
 350      00000000 
 350      00000000 
 351              		.text
 352              	.Letext0:
 353              		.file 2 "Drivers/CMSIS/Device/ST/STM32F3xx/Include/stm32f302x8.h"
 354              		.file 3 "C:/toolchain/arm_gnu_toolchain/arm-none-eabi/include/machine/_default_types.h"
 355              		.file 4 "C:/toolchain/arm_gnu_toolchain/arm-none-eabi/include/sys/_stdint.h"
 356              		.file 5 "Drivers/STM32F3xx_HAL_Driver/Inc/stm32f3xx_hal_def.h"
 357              		.file 6 "Drivers/STM32F3xx_HAL_Driver/Inc/stm32f3xx_hal_gpio.h"
 358              		.file 7 "Drivers/STM32F3xx_HAL_Driver/Inc/stm32f3xx_hal_dma.h"
 359              		.file 8 "Drivers/STM32F3xx_HAL_Driver/Inc/stm32f3xx_hal_uart.h"
 360              		.file 9 "Core/Inc/usart.h"
 361              		.file 10 "Drivers/STM32F3xx_HAL_Driver/Inc/stm32f3xx_hal_cortex.h"
 362              		.file 11 "Core/Inc/main.h"
ARM GAS  C:\Users\Simio\AppData\Local\Temp\ccX4v4Yy.s 			page 11

