ARM GAS  C:\Users\Simio\AppData\Local\Temp\ccX5nZ0t.s 			page 1


   1              		.cpu cortex-m4
   2              		.arch armv7e-m
   3              		.fpu fpv4-sp-d16
   4              		.eabi_attribute 27, 1
   5              		.eabi_attribute 28, 1
   6              		.eabi_attribute 20, 1
   7              		.eabi_attribute 21, 1
   8              		.eabi_attribute 23, 3
   9              		.eabi_attribute 24, 1
  10              		.eabi_attribute 25, 1
  11              		.eabi_attribute 26, 1
  12              		.eabi_attribute 30, 1
  13              		.eabi_attribute 34, 1
  14              		.eabi_attribute 18, 4
  15              		.file	"usbd_conf.c"
  16              		.text
  17              	.Ltext0:
  18              		.cfi_sections	.debug_frame
  19              		.file 1 "USB_DEVICE/Target/usbd_conf.c"
  20              		.section	.text.USBD_Get_USB_Status,"ax",%progbits
  21              		.align	1
  22              		.syntax unified
  23              		.thumb
  24              		.thumb_func
  26              	USBD_Get_USB_Status:
  27              	.LVL0:
  28              	.LFB157:
   1:USB_DEVICE/Target/usbd_conf.c **** /* USER CODE BEGIN Header */
   2:USB_DEVICE/Target/usbd_conf.c **** /**
   3:USB_DEVICE/Target/usbd_conf.c ****   ******************************************************************************
   4:USB_DEVICE/Target/usbd_conf.c ****   * @file           : Target/usbd_conf.c
   5:USB_DEVICE/Target/usbd_conf.c ****   * @version        : v2.0_Cube
   6:USB_DEVICE/Target/usbd_conf.c ****   * @brief          : This file implements the board support package for the USB device library
   7:USB_DEVICE/Target/usbd_conf.c ****   ******************************************************************************
   8:USB_DEVICE/Target/usbd_conf.c ****   * @attention
   9:USB_DEVICE/Target/usbd_conf.c ****   *
  10:USB_DEVICE/Target/usbd_conf.c ****   * Copyright (c) 2024 STMicroelectronics.
  11:USB_DEVICE/Target/usbd_conf.c ****   * All rights reserved.
  12:USB_DEVICE/Target/usbd_conf.c ****   *
  13:USB_DEVICE/Target/usbd_conf.c ****   * This software is licensed under terms that can be found in the LICENSE file
  14:USB_DEVICE/Target/usbd_conf.c ****   * in the root directory of this software component.
  15:USB_DEVICE/Target/usbd_conf.c ****   * If no LICENSE file comes with this software, it is provided AS-IS.
  16:USB_DEVICE/Target/usbd_conf.c ****   *
  17:USB_DEVICE/Target/usbd_conf.c ****   ******************************************************************************
  18:USB_DEVICE/Target/usbd_conf.c ****   */
  19:USB_DEVICE/Target/usbd_conf.c **** /* USER CODE END Header */
  20:USB_DEVICE/Target/usbd_conf.c **** 
  21:USB_DEVICE/Target/usbd_conf.c **** /* Includes ------------------------------------------------------------------*/
  22:USB_DEVICE/Target/usbd_conf.c **** #include "stm32f3xx.h"
  23:USB_DEVICE/Target/usbd_conf.c **** #include "stm32f3xx_hal.h"
  24:USB_DEVICE/Target/usbd_conf.c **** #include "usbd_def.h"
  25:USB_DEVICE/Target/usbd_conf.c **** #include "usbd_core.h"
  26:USB_DEVICE/Target/usbd_conf.c **** #include "usbd_cdc.h"
  27:USB_DEVICE/Target/usbd_conf.c **** 
  28:USB_DEVICE/Target/usbd_conf.c **** /* USER CODE BEGIN Includes */
  29:USB_DEVICE/Target/usbd_conf.c **** 
  30:USB_DEVICE/Target/usbd_conf.c **** /* USER CODE END Includes */
ARM GAS  C:\Users\Simio\AppData\Local\Temp\ccX5nZ0t.s 			page 2


  31:USB_DEVICE/Target/usbd_conf.c **** 
  32:USB_DEVICE/Target/usbd_conf.c **** /* Private typedef -----------------------------------------------------------*/
  33:USB_DEVICE/Target/usbd_conf.c **** /* Private define ------------------------------------------------------------*/
  34:USB_DEVICE/Target/usbd_conf.c **** /* Private macro -------------------------------------------------------------*/
  35:USB_DEVICE/Target/usbd_conf.c **** 
  36:USB_DEVICE/Target/usbd_conf.c **** /* USER CODE BEGIN PV */
  37:USB_DEVICE/Target/usbd_conf.c **** /* Private variables ---------------------------------------------------------*/
  38:USB_DEVICE/Target/usbd_conf.c **** 
  39:USB_DEVICE/Target/usbd_conf.c **** /* USER CODE END PV */
  40:USB_DEVICE/Target/usbd_conf.c **** 
  41:USB_DEVICE/Target/usbd_conf.c **** PCD_HandleTypeDef hpcd_USB_FS;
  42:USB_DEVICE/Target/usbd_conf.c **** void Error_Handler(void);
  43:USB_DEVICE/Target/usbd_conf.c **** 
  44:USB_DEVICE/Target/usbd_conf.c **** /* USER CODE BEGIN 0 */
  45:USB_DEVICE/Target/usbd_conf.c **** 
  46:USB_DEVICE/Target/usbd_conf.c **** /* USER CODE END 0 */
  47:USB_DEVICE/Target/usbd_conf.c **** 
  48:USB_DEVICE/Target/usbd_conf.c **** /* USER CODE BEGIN PFP */
  49:USB_DEVICE/Target/usbd_conf.c **** /* Private function prototypes -----------------------------------------------*/
  50:USB_DEVICE/Target/usbd_conf.c **** 
  51:USB_DEVICE/Target/usbd_conf.c **** /* USER CODE END PFP */
  52:USB_DEVICE/Target/usbd_conf.c **** 
  53:USB_DEVICE/Target/usbd_conf.c **** /* Private functions ---------------------------------------------------------*/
  54:USB_DEVICE/Target/usbd_conf.c **** static USBD_StatusTypeDef USBD_Get_USB_Status(HAL_StatusTypeDef hal_status);
  55:USB_DEVICE/Target/usbd_conf.c **** /* USER CODE BEGIN 1 */
  56:USB_DEVICE/Target/usbd_conf.c **** 
  57:USB_DEVICE/Target/usbd_conf.c **** /* USER CODE END 1 */
  58:USB_DEVICE/Target/usbd_conf.c **** #if (USE_HAL_PCD_REGISTER_CALLBACKS == 1U)
  59:USB_DEVICE/Target/usbd_conf.c **** static void PCDEx_SetConnectionState(PCD_HandleTypeDef *hpcd, uint8_t state);
  60:USB_DEVICE/Target/usbd_conf.c **** #else
  61:USB_DEVICE/Target/usbd_conf.c **** void HAL_PCDEx_SetConnectionState(PCD_HandleTypeDef *hpcd, uint8_t state);
  62:USB_DEVICE/Target/usbd_conf.c **** #endif /* USE_HAL_PCD_REGISTER_CALLBACKS */
  63:USB_DEVICE/Target/usbd_conf.c **** 
  64:USB_DEVICE/Target/usbd_conf.c **** /*******************************************************************************
  65:USB_DEVICE/Target/usbd_conf.c ****                        LL Driver Callbacks (PCD -> USB Device Library)
  66:USB_DEVICE/Target/usbd_conf.c **** *******************************************************************************/
  67:USB_DEVICE/Target/usbd_conf.c **** /* MSP Init */
  68:USB_DEVICE/Target/usbd_conf.c **** 
  69:USB_DEVICE/Target/usbd_conf.c **** void HAL_PCD_MspInit(PCD_HandleTypeDef* pcdHandle)
  70:USB_DEVICE/Target/usbd_conf.c **** {
  71:USB_DEVICE/Target/usbd_conf.c ****   if(pcdHandle->Instance==USB)
  72:USB_DEVICE/Target/usbd_conf.c ****   {
  73:USB_DEVICE/Target/usbd_conf.c ****   /* USER CODE BEGIN USB_MspInit 0 */
  74:USB_DEVICE/Target/usbd_conf.c **** 
  75:USB_DEVICE/Target/usbd_conf.c ****   /* USER CODE END USB_MspInit 0 */
  76:USB_DEVICE/Target/usbd_conf.c ****     /* Peripheral clock enable */
  77:USB_DEVICE/Target/usbd_conf.c ****     __HAL_RCC_USB_CLK_ENABLE();
  78:USB_DEVICE/Target/usbd_conf.c **** 
  79:USB_DEVICE/Target/usbd_conf.c ****     /* Peripheral interrupt init */
  80:USB_DEVICE/Target/usbd_conf.c ****     __HAL_REMAPINTERRUPT_USB_ENABLE();
  81:USB_DEVICE/Target/usbd_conf.c ****     HAL_NVIC_SetPriority(USB_LP_IRQn, 0, 0);
  82:USB_DEVICE/Target/usbd_conf.c ****     HAL_NVIC_EnableIRQ(USB_LP_IRQn);
  83:USB_DEVICE/Target/usbd_conf.c ****   /* USER CODE BEGIN USB_MspInit 1 */
  84:USB_DEVICE/Target/usbd_conf.c **** 
  85:USB_DEVICE/Target/usbd_conf.c ****   /* USER CODE END USB_MspInit 1 */
  86:USB_DEVICE/Target/usbd_conf.c ****   }
  87:USB_DEVICE/Target/usbd_conf.c **** }
ARM GAS  C:\Users\Simio\AppData\Local\Temp\ccX5nZ0t.s 			page 3


  88:USB_DEVICE/Target/usbd_conf.c **** 
  89:USB_DEVICE/Target/usbd_conf.c **** void HAL_PCD_MspDeInit(PCD_HandleTypeDef* pcdHandle)
  90:USB_DEVICE/Target/usbd_conf.c **** {
  91:USB_DEVICE/Target/usbd_conf.c ****   if(pcdHandle->Instance==USB)
  92:USB_DEVICE/Target/usbd_conf.c ****   {
  93:USB_DEVICE/Target/usbd_conf.c ****   /* USER CODE BEGIN USB_MspDeInit 0 */
  94:USB_DEVICE/Target/usbd_conf.c **** 
  95:USB_DEVICE/Target/usbd_conf.c ****   /* USER CODE END USB_MspDeInit 0 */
  96:USB_DEVICE/Target/usbd_conf.c ****     /* Peripheral clock disable */
  97:USB_DEVICE/Target/usbd_conf.c ****     __HAL_RCC_USB_CLK_DISABLE();
  98:USB_DEVICE/Target/usbd_conf.c **** 
  99:USB_DEVICE/Target/usbd_conf.c ****     /* Peripheral interrupt Deinit*/
 100:USB_DEVICE/Target/usbd_conf.c ****     HAL_NVIC_DisableIRQ(USB_LP_IRQn);
 101:USB_DEVICE/Target/usbd_conf.c **** 
 102:USB_DEVICE/Target/usbd_conf.c ****   /* USER CODE BEGIN USB_MspDeInit 1 */
 103:USB_DEVICE/Target/usbd_conf.c **** 
 104:USB_DEVICE/Target/usbd_conf.c ****   /* USER CODE END USB_MspDeInit 1 */
 105:USB_DEVICE/Target/usbd_conf.c ****   }
 106:USB_DEVICE/Target/usbd_conf.c **** }
 107:USB_DEVICE/Target/usbd_conf.c **** 
 108:USB_DEVICE/Target/usbd_conf.c **** /**
 109:USB_DEVICE/Target/usbd_conf.c ****   * @brief  Setup stage callback
 110:USB_DEVICE/Target/usbd_conf.c ****   * @param  hpcd: PCD handle
 111:USB_DEVICE/Target/usbd_conf.c ****   * @retval None
 112:USB_DEVICE/Target/usbd_conf.c ****   */
 113:USB_DEVICE/Target/usbd_conf.c **** #if (USE_HAL_PCD_REGISTER_CALLBACKS == 1U)
 114:USB_DEVICE/Target/usbd_conf.c **** static void PCD_SetupStageCallback(PCD_HandleTypeDef *hpcd)
 115:USB_DEVICE/Target/usbd_conf.c **** #else
 116:USB_DEVICE/Target/usbd_conf.c **** void HAL_PCD_SetupStageCallback(PCD_HandleTypeDef *hpcd)
 117:USB_DEVICE/Target/usbd_conf.c **** #endif /* USE_HAL_PCD_REGISTER_CALLBACKS */
 118:USB_DEVICE/Target/usbd_conf.c **** {
 119:USB_DEVICE/Target/usbd_conf.c ****   USBD_LL_SetupStage((USBD_HandleTypeDef*)hpcd->pData, (uint8_t *)hpcd->Setup);
 120:USB_DEVICE/Target/usbd_conf.c **** }
 121:USB_DEVICE/Target/usbd_conf.c **** 
 122:USB_DEVICE/Target/usbd_conf.c **** /**
 123:USB_DEVICE/Target/usbd_conf.c ****   * @brief  Data Out stage callback.
 124:USB_DEVICE/Target/usbd_conf.c ****   * @param  hpcd: PCD handle
 125:USB_DEVICE/Target/usbd_conf.c ****   * @param  epnum: Endpoint number
 126:USB_DEVICE/Target/usbd_conf.c ****   * @retval None
 127:USB_DEVICE/Target/usbd_conf.c ****   */
 128:USB_DEVICE/Target/usbd_conf.c **** #if (USE_HAL_PCD_REGISTER_CALLBACKS == 1U)
 129:USB_DEVICE/Target/usbd_conf.c **** static void PCD_DataOutStageCallback(PCD_HandleTypeDef *hpcd, uint8_t epnum)
 130:USB_DEVICE/Target/usbd_conf.c **** #else
 131:USB_DEVICE/Target/usbd_conf.c **** void HAL_PCD_DataOutStageCallback(PCD_HandleTypeDef *hpcd, uint8_t epnum)
 132:USB_DEVICE/Target/usbd_conf.c **** #endif /* USE_HAL_PCD_REGISTER_CALLBACKS */
 133:USB_DEVICE/Target/usbd_conf.c **** {
 134:USB_DEVICE/Target/usbd_conf.c ****   USBD_LL_DataOutStage((USBD_HandleTypeDef*)hpcd->pData, epnum, hpcd->OUT_ep[epnum].xfer_buff);
 135:USB_DEVICE/Target/usbd_conf.c **** }
 136:USB_DEVICE/Target/usbd_conf.c **** 
 137:USB_DEVICE/Target/usbd_conf.c **** /**
 138:USB_DEVICE/Target/usbd_conf.c ****   * @brief  Data In stage callback.
 139:USB_DEVICE/Target/usbd_conf.c ****   * @param  hpcd: PCD handle
 140:USB_DEVICE/Target/usbd_conf.c ****   * @param  epnum: Endpoint number
 141:USB_DEVICE/Target/usbd_conf.c ****   * @retval None
 142:USB_DEVICE/Target/usbd_conf.c ****   */
 143:USB_DEVICE/Target/usbd_conf.c **** #if (USE_HAL_PCD_REGISTER_CALLBACKS == 1U)
 144:USB_DEVICE/Target/usbd_conf.c **** static void PCD_DataInStageCallback(PCD_HandleTypeDef *hpcd, uint8_t epnum)
ARM GAS  C:\Users\Simio\AppData\Local\Temp\ccX5nZ0t.s 			page 4


 145:USB_DEVICE/Target/usbd_conf.c **** #else
 146:USB_DEVICE/Target/usbd_conf.c **** void HAL_PCD_DataInStageCallback(PCD_HandleTypeDef *hpcd, uint8_t epnum)
 147:USB_DEVICE/Target/usbd_conf.c **** #endif /* USE_HAL_PCD_REGISTER_CALLBACKS */
 148:USB_DEVICE/Target/usbd_conf.c **** {
 149:USB_DEVICE/Target/usbd_conf.c ****   USBD_LL_DataInStage((USBD_HandleTypeDef*)hpcd->pData, epnum, hpcd->IN_ep[epnum].xfer_buff);
 150:USB_DEVICE/Target/usbd_conf.c **** }
 151:USB_DEVICE/Target/usbd_conf.c **** 
 152:USB_DEVICE/Target/usbd_conf.c **** /**
 153:USB_DEVICE/Target/usbd_conf.c ****   * @brief  SOF callback.
 154:USB_DEVICE/Target/usbd_conf.c ****   * @param  hpcd: PCD handle
 155:USB_DEVICE/Target/usbd_conf.c ****   * @retval None
 156:USB_DEVICE/Target/usbd_conf.c ****   */
 157:USB_DEVICE/Target/usbd_conf.c **** #if (USE_HAL_PCD_REGISTER_CALLBACKS == 1U)
 158:USB_DEVICE/Target/usbd_conf.c **** static void PCD_SOFCallback(PCD_HandleTypeDef *hpcd)
 159:USB_DEVICE/Target/usbd_conf.c **** #else
 160:USB_DEVICE/Target/usbd_conf.c **** void HAL_PCD_SOFCallback(PCD_HandleTypeDef *hpcd)
 161:USB_DEVICE/Target/usbd_conf.c **** #endif /* USE_HAL_PCD_REGISTER_CALLBACKS */
 162:USB_DEVICE/Target/usbd_conf.c **** {
 163:USB_DEVICE/Target/usbd_conf.c ****   USBD_LL_SOF((USBD_HandleTypeDef*)hpcd->pData);
 164:USB_DEVICE/Target/usbd_conf.c **** }
 165:USB_DEVICE/Target/usbd_conf.c **** 
 166:USB_DEVICE/Target/usbd_conf.c **** /**
 167:USB_DEVICE/Target/usbd_conf.c ****   * @brief  Reset callback.
 168:USB_DEVICE/Target/usbd_conf.c ****   * @param  hpcd: PCD handle
 169:USB_DEVICE/Target/usbd_conf.c ****   * @retval None
 170:USB_DEVICE/Target/usbd_conf.c ****   */
 171:USB_DEVICE/Target/usbd_conf.c **** #if (USE_HAL_PCD_REGISTER_CALLBACKS == 1U)
 172:USB_DEVICE/Target/usbd_conf.c **** static void PCD_ResetCallback(PCD_HandleTypeDef *hpcd)
 173:USB_DEVICE/Target/usbd_conf.c **** #else
 174:USB_DEVICE/Target/usbd_conf.c **** void HAL_PCD_ResetCallback(PCD_HandleTypeDef *hpcd)
 175:USB_DEVICE/Target/usbd_conf.c **** #endif /* USE_HAL_PCD_REGISTER_CALLBACKS */
 176:USB_DEVICE/Target/usbd_conf.c **** {
 177:USB_DEVICE/Target/usbd_conf.c ****   USBD_SpeedTypeDef speed = USBD_SPEED_FULL;
 178:USB_DEVICE/Target/usbd_conf.c **** 
 179:USB_DEVICE/Target/usbd_conf.c ****   if ( hpcd->Init.speed != PCD_SPEED_FULL)
 180:USB_DEVICE/Target/usbd_conf.c ****   {
 181:USB_DEVICE/Target/usbd_conf.c ****     Error_Handler();
 182:USB_DEVICE/Target/usbd_conf.c ****   }
 183:USB_DEVICE/Target/usbd_conf.c ****     /* Set Speed. */
 184:USB_DEVICE/Target/usbd_conf.c ****   USBD_LL_SetSpeed((USBD_HandleTypeDef*)hpcd->pData, speed);
 185:USB_DEVICE/Target/usbd_conf.c **** 
 186:USB_DEVICE/Target/usbd_conf.c ****   /* Reset Device. */
 187:USB_DEVICE/Target/usbd_conf.c ****   USBD_LL_Reset((USBD_HandleTypeDef*)hpcd->pData);
 188:USB_DEVICE/Target/usbd_conf.c **** }
 189:USB_DEVICE/Target/usbd_conf.c **** 
 190:USB_DEVICE/Target/usbd_conf.c **** /**
 191:USB_DEVICE/Target/usbd_conf.c ****   * @brief  Suspend callback.
 192:USB_DEVICE/Target/usbd_conf.c ****   * When Low power mode is enabled the debug cannot be used (IAR, Keil doesn't support it)
 193:USB_DEVICE/Target/usbd_conf.c ****   * @param  hpcd: PCD handle
 194:USB_DEVICE/Target/usbd_conf.c ****   * @retval None
 195:USB_DEVICE/Target/usbd_conf.c ****   */
 196:USB_DEVICE/Target/usbd_conf.c **** #if (USE_HAL_PCD_REGISTER_CALLBACKS == 1U)
 197:USB_DEVICE/Target/usbd_conf.c **** static void PCD_SuspendCallback(PCD_HandleTypeDef *hpcd)
 198:USB_DEVICE/Target/usbd_conf.c **** #else
 199:USB_DEVICE/Target/usbd_conf.c **** void HAL_PCD_SuspendCallback(PCD_HandleTypeDef *hpcd)
 200:USB_DEVICE/Target/usbd_conf.c **** #endif /* USE_HAL_PCD_REGISTER_CALLBACKS */
 201:USB_DEVICE/Target/usbd_conf.c **** {
ARM GAS  C:\Users\Simio\AppData\Local\Temp\ccX5nZ0t.s 			page 5


 202:USB_DEVICE/Target/usbd_conf.c ****   /* Inform USB library that core enters in suspend Mode. */
 203:USB_DEVICE/Target/usbd_conf.c ****   USBD_LL_Suspend((USBD_HandleTypeDef*)hpcd->pData);
 204:USB_DEVICE/Target/usbd_conf.c ****   /* Enter in STOP mode. */
 205:USB_DEVICE/Target/usbd_conf.c ****   /* USER CODE BEGIN 2 */
 206:USB_DEVICE/Target/usbd_conf.c ****   if (hpcd->Init.low_power_enable)
 207:USB_DEVICE/Target/usbd_conf.c ****   {
 208:USB_DEVICE/Target/usbd_conf.c ****     /* Set SLEEPDEEP bit and SleepOnExit of Cortex System Control Register. */
 209:USB_DEVICE/Target/usbd_conf.c ****     SCB->SCR |= (uint32_t)((uint32_t)(SCB_SCR_SLEEPDEEP_Msk | SCB_SCR_SLEEPONEXIT_Msk));
 210:USB_DEVICE/Target/usbd_conf.c ****   }
 211:USB_DEVICE/Target/usbd_conf.c ****   /* USER CODE END 2 */
 212:USB_DEVICE/Target/usbd_conf.c **** }
 213:USB_DEVICE/Target/usbd_conf.c **** 
 214:USB_DEVICE/Target/usbd_conf.c **** /**
 215:USB_DEVICE/Target/usbd_conf.c ****   * @brief  Resume callback.
 216:USB_DEVICE/Target/usbd_conf.c ****   * When Low power mode is enabled the debug cannot be used (IAR, Keil doesn't support it)
 217:USB_DEVICE/Target/usbd_conf.c ****   * @param  hpcd: PCD handle
 218:USB_DEVICE/Target/usbd_conf.c ****   * @retval None
 219:USB_DEVICE/Target/usbd_conf.c ****   */
 220:USB_DEVICE/Target/usbd_conf.c **** #if (USE_HAL_PCD_REGISTER_CALLBACKS == 1U)
 221:USB_DEVICE/Target/usbd_conf.c **** static void PCD_ResumeCallback(PCD_HandleTypeDef *hpcd)
 222:USB_DEVICE/Target/usbd_conf.c **** #else
 223:USB_DEVICE/Target/usbd_conf.c **** void HAL_PCD_ResumeCallback(PCD_HandleTypeDef *hpcd)
 224:USB_DEVICE/Target/usbd_conf.c **** #endif /* USE_HAL_PCD_REGISTER_CALLBACKS */
 225:USB_DEVICE/Target/usbd_conf.c **** {
 226:USB_DEVICE/Target/usbd_conf.c ****   /* USER CODE BEGIN 3 */
 227:USB_DEVICE/Target/usbd_conf.c **** 
 228:USB_DEVICE/Target/usbd_conf.c ****   /* USER CODE END 3 */
 229:USB_DEVICE/Target/usbd_conf.c ****   USBD_LL_Resume((USBD_HandleTypeDef*)hpcd->pData);
 230:USB_DEVICE/Target/usbd_conf.c **** }
 231:USB_DEVICE/Target/usbd_conf.c **** 
 232:USB_DEVICE/Target/usbd_conf.c **** /**
 233:USB_DEVICE/Target/usbd_conf.c ****   * @brief  ISOOUTIncomplete callback.
 234:USB_DEVICE/Target/usbd_conf.c ****   * @param  hpcd: PCD handle
 235:USB_DEVICE/Target/usbd_conf.c ****   * @param  epnum: Endpoint number
 236:USB_DEVICE/Target/usbd_conf.c ****   * @retval None
 237:USB_DEVICE/Target/usbd_conf.c ****   */
 238:USB_DEVICE/Target/usbd_conf.c **** #if (USE_HAL_PCD_REGISTER_CALLBACKS == 1U)
 239:USB_DEVICE/Target/usbd_conf.c **** static void PCD_ISOOUTIncompleteCallback(PCD_HandleTypeDef *hpcd, uint8_t epnum)
 240:USB_DEVICE/Target/usbd_conf.c **** #else
 241:USB_DEVICE/Target/usbd_conf.c **** void HAL_PCD_ISOOUTIncompleteCallback(PCD_HandleTypeDef *hpcd, uint8_t epnum)
 242:USB_DEVICE/Target/usbd_conf.c **** #endif /* USE_HAL_PCD_REGISTER_CALLBACKS */
 243:USB_DEVICE/Target/usbd_conf.c **** {
 244:USB_DEVICE/Target/usbd_conf.c ****   USBD_LL_IsoOUTIncomplete((USBD_HandleTypeDef*)hpcd->pData, epnum);
 245:USB_DEVICE/Target/usbd_conf.c **** }
 246:USB_DEVICE/Target/usbd_conf.c **** 
 247:USB_DEVICE/Target/usbd_conf.c **** /**
 248:USB_DEVICE/Target/usbd_conf.c ****   * @brief  ISOINIncomplete callback.
 249:USB_DEVICE/Target/usbd_conf.c ****   * @param  hpcd: PCD handle
 250:USB_DEVICE/Target/usbd_conf.c ****   * @param  epnum: Endpoint number
 251:USB_DEVICE/Target/usbd_conf.c ****   * @retval None
 252:USB_DEVICE/Target/usbd_conf.c ****   */
 253:USB_DEVICE/Target/usbd_conf.c **** #if (USE_HAL_PCD_REGISTER_CALLBACKS == 1U)
 254:USB_DEVICE/Target/usbd_conf.c **** static void PCD_ISOINIncompleteCallback(PCD_HandleTypeDef *hpcd, uint8_t epnum)
 255:USB_DEVICE/Target/usbd_conf.c **** #else
 256:USB_DEVICE/Target/usbd_conf.c **** void HAL_PCD_ISOINIncompleteCallback(PCD_HandleTypeDef *hpcd, uint8_t epnum)
 257:USB_DEVICE/Target/usbd_conf.c **** #endif /* USE_HAL_PCD_REGISTER_CALLBACKS */
 258:USB_DEVICE/Target/usbd_conf.c **** {
ARM GAS  C:\Users\Simio\AppData\Local\Temp\ccX5nZ0t.s 			page 6


 259:USB_DEVICE/Target/usbd_conf.c ****   USBD_LL_IsoINIncomplete((USBD_HandleTypeDef*)hpcd->pData, epnum);
 260:USB_DEVICE/Target/usbd_conf.c **** }
 261:USB_DEVICE/Target/usbd_conf.c **** 
 262:USB_DEVICE/Target/usbd_conf.c **** /**
 263:USB_DEVICE/Target/usbd_conf.c ****   * @brief  Connect callback.
 264:USB_DEVICE/Target/usbd_conf.c ****   * @param  hpcd: PCD handle
 265:USB_DEVICE/Target/usbd_conf.c ****   * @retval None
 266:USB_DEVICE/Target/usbd_conf.c ****   */
 267:USB_DEVICE/Target/usbd_conf.c **** #if (USE_HAL_PCD_REGISTER_CALLBACKS == 1U)
 268:USB_DEVICE/Target/usbd_conf.c **** static void PCD_ConnectCallback(PCD_HandleTypeDef *hpcd)
 269:USB_DEVICE/Target/usbd_conf.c **** #else
 270:USB_DEVICE/Target/usbd_conf.c **** void HAL_PCD_ConnectCallback(PCD_HandleTypeDef *hpcd)
 271:USB_DEVICE/Target/usbd_conf.c **** #endif /* USE_HAL_PCD_REGISTER_CALLBACKS */
 272:USB_DEVICE/Target/usbd_conf.c **** {
 273:USB_DEVICE/Target/usbd_conf.c ****   USBD_LL_DevConnected((USBD_HandleTypeDef*)hpcd->pData);
 274:USB_DEVICE/Target/usbd_conf.c **** }
 275:USB_DEVICE/Target/usbd_conf.c **** 
 276:USB_DEVICE/Target/usbd_conf.c **** /**
 277:USB_DEVICE/Target/usbd_conf.c ****   * @brief  Disconnect callback.
 278:USB_DEVICE/Target/usbd_conf.c ****   * @param  hpcd: PCD handle
 279:USB_DEVICE/Target/usbd_conf.c ****   * @retval None
 280:USB_DEVICE/Target/usbd_conf.c ****   */
 281:USB_DEVICE/Target/usbd_conf.c **** #if (USE_HAL_PCD_REGISTER_CALLBACKS == 1U)
 282:USB_DEVICE/Target/usbd_conf.c **** static void PCD_DisconnectCallback(PCD_HandleTypeDef *hpcd)
 283:USB_DEVICE/Target/usbd_conf.c **** #else
 284:USB_DEVICE/Target/usbd_conf.c **** void HAL_PCD_DisconnectCallback(PCD_HandleTypeDef *hpcd)
 285:USB_DEVICE/Target/usbd_conf.c **** #endif /* USE_HAL_PCD_REGISTER_CALLBACKS */
 286:USB_DEVICE/Target/usbd_conf.c **** {
 287:USB_DEVICE/Target/usbd_conf.c ****   USBD_LL_DevDisconnected((USBD_HandleTypeDef*)hpcd->pData);
 288:USB_DEVICE/Target/usbd_conf.c **** }
 289:USB_DEVICE/Target/usbd_conf.c **** 
 290:USB_DEVICE/Target/usbd_conf.c **** /*******************************************************************************
 291:USB_DEVICE/Target/usbd_conf.c ****                        LL Driver Interface (USB Device Library --> PCD)
 292:USB_DEVICE/Target/usbd_conf.c **** *******************************************************************************/
 293:USB_DEVICE/Target/usbd_conf.c **** 
 294:USB_DEVICE/Target/usbd_conf.c **** /**
 295:USB_DEVICE/Target/usbd_conf.c ****   * @brief  Initializes the low level portion of the device driver.
 296:USB_DEVICE/Target/usbd_conf.c ****   * @param  pdev: Device handle
 297:USB_DEVICE/Target/usbd_conf.c ****   * @retval USBD status
 298:USB_DEVICE/Target/usbd_conf.c ****   */
 299:USB_DEVICE/Target/usbd_conf.c **** USBD_StatusTypeDef USBD_LL_Init(USBD_HandleTypeDef *pdev)
 300:USB_DEVICE/Target/usbd_conf.c **** {
 301:USB_DEVICE/Target/usbd_conf.c ****   /* Init USB Ip. */
 302:USB_DEVICE/Target/usbd_conf.c ****   /* Link the driver to the stack. */
 303:USB_DEVICE/Target/usbd_conf.c ****   hpcd_USB_FS.pData = pdev;
 304:USB_DEVICE/Target/usbd_conf.c ****   pdev->pData = &hpcd_USB_FS;
 305:USB_DEVICE/Target/usbd_conf.c **** 
 306:USB_DEVICE/Target/usbd_conf.c ****   hpcd_USB_FS.Instance = USB;
 307:USB_DEVICE/Target/usbd_conf.c ****   hpcd_USB_FS.Init.dev_endpoints = 8;
 308:USB_DEVICE/Target/usbd_conf.c ****   hpcd_USB_FS.Init.speed = PCD_SPEED_FULL;
 309:USB_DEVICE/Target/usbd_conf.c ****   hpcd_USB_FS.Init.phy_itface = PCD_PHY_EMBEDDED;
 310:USB_DEVICE/Target/usbd_conf.c ****   hpcd_USB_FS.Init.low_power_enable = DISABLE;
 311:USB_DEVICE/Target/usbd_conf.c ****   hpcd_USB_FS.Init.battery_charging_enable = DISABLE;
 312:USB_DEVICE/Target/usbd_conf.c ****   if (HAL_PCD_Init(&hpcd_USB_FS) != HAL_OK)
 313:USB_DEVICE/Target/usbd_conf.c ****   {
 314:USB_DEVICE/Target/usbd_conf.c ****     Error_Handler( );
 315:USB_DEVICE/Target/usbd_conf.c ****   }
ARM GAS  C:\Users\Simio\AppData\Local\Temp\ccX5nZ0t.s 			page 7


 316:USB_DEVICE/Target/usbd_conf.c **** 
 317:USB_DEVICE/Target/usbd_conf.c **** #if (USE_HAL_PCD_REGISTER_CALLBACKS == 1U)
 318:USB_DEVICE/Target/usbd_conf.c ****   /* Register USB PCD CallBacks */
 319:USB_DEVICE/Target/usbd_conf.c ****   HAL_PCD_RegisterCallback(&hpcd_USB_FS, HAL_PCD_SOF_CB_ID, PCD_SOFCallback);
 320:USB_DEVICE/Target/usbd_conf.c ****   HAL_PCD_RegisterCallback(&hpcd_USB_FS, HAL_PCD_SETUPSTAGE_CB_ID, PCD_SetupStageCallback);
 321:USB_DEVICE/Target/usbd_conf.c ****   HAL_PCD_RegisterCallback(&hpcd_USB_FS, HAL_PCD_RESET_CB_ID, PCD_ResetCallback);
 322:USB_DEVICE/Target/usbd_conf.c ****   HAL_PCD_RegisterCallback(&hpcd_USB_FS, HAL_PCD_SUSPEND_CB_ID, PCD_SuspendCallback);
 323:USB_DEVICE/Target/usbd_conf.c ****   HAL_PCD_RegisterCallback(&hpcd_USB_FS, HAL_PCD_RESUME_CB_ID, PCD_ResumeCallback);
 324:USB_DEVICE/Target/usbd_conf.c ****   HAL_PCD_RegisterCallback(&hpcd_USB_FS, HAL_PCD_CONNECT_CB_ID, PCD_ConnectCallback);
 325:USB_DEVICE/Target/usbd_conf.c ****   HAL_PCD_RegisterCallback(&hpcd_USB_FS, HAL_PCD_DISCONNECT_CB_ID, PCD_DisconnectCallback);
 326:USB_DEVICE/Target/usbd_conf.c **** 
 327:USB_DEVICE/Target/usbd_conf.c ****   HAL_PCD_RegisterDataOutStageCallback(&hpcd_USB_FS, PCD_DataOutStageCallback);
 328:USB_DEVICE/Target/usbd_conf.c ****   HAL_PCD_RegisterDataInStageCallback(&hpcd_USB_FS, PCD_DataInStageCallback);
 329:USB_DEVICE/Target/usbd_conf.c ****   HAL_PCD_RegisterIsoOutIncpltCallback(&hpcd_USB_FS, PCD_ISOOUTIncompleteCallback);
 330:USB_DEVICE/Target/usbd_conf.c ****   HAL_PCD_RegisterIsoInIncpltCallback(&hpcd_USB_FS, PCD_ISOINIncompleteCallback);
 331:USB_DEVICE/Target/usbd_conf.c **** #endif /* USE_HAL_PCD_REGISTER_CALLBACKS */
 332:USB_DEVICE/Target/usbd_conf.c ****   /* USER CODE BEGIN EndPoint_Configuration */
 333:USB_DEVICE/Target/usbd_conf.c ****   HAL_PCDEx_PMAConfig((PCD_HandleTypeDef*)pdev->pData , 0x00 , PCD_SNG_BUF, 0x18);
 334:USB_DEVICE/Target/usbd_conf.c ****   HAL_PCDEx_PMAConfig((PCD_HandleTypeDef*)pdev->pData , 0x80 , PCD_SNG_BUF, 0x58);
 335:USB_DEVICE/Target/usbd_conf.c ****   /* USER CODE END EndPoint_Configuration */
 336:USB_DEVICE/Target/usbd_conf.c ****   /* USER CODE BEGIN EndPoint_Configuration_CDC */
 337:USB_DEVICE/Target/usbd_conf.c ****   HAL_PCDEx_PMAConfig((PCD_HandleTypeDef*)pdev->pData , 0x81 , PCD_SNG_BUF, 0xC0);
 338:USB_DEVICE/Target/usbd_conf.c ****   HAL_PCDEx_PMAConfig((PCD_HandleTypeDef*)pdev->pData , 0x01 , PCD_SNG_BUF, 0x110);
 339:USB_DEVICE/Target/usbd_conf.c ****   HAL_PCDEx_PMAConfig((PCD_HandleTypeDef*)pdev->pData , 0x82 , PCD_SNG_BUF, 0x100);
 340:USB_DEVICE/Target/usbd_conf.c ****   /* USER CODE END EndPoint_Configuration_CDC */
 341:USB_DEVICE/Target/usbd_conf.c ****   return USBD_OK;
 342:USB_DEVICE/Target/usbd_conf.c **** }
 343:USB_DEVICE/Target/usbd_conf.c **** 
 344:USB_DEVICE/Target/usbd_conf.c **** /**
 345:USB_DEVICE/Target/usbd_conf.c ****   * @brief  De-Initializes the low level portion of the device driver.
 346:USB_DEVICE/Target/usbd_conf.c ****   * @param  pdev: Device handle
 347:USB_DEVICE/Target/usbd_conf.c ****   * @retval USBD status
 348:USB_DEVICE/Target/usbd_conf.c ****   */
 349:USB_DEVICE/Target/usbd_conf.c **** USBD_StatusTypeDef USBD_LL_DeInit(USBD_HandleTypeDef *pdev)
 350:USB_DEVICE/Target/usbd_conf.c **** {
 351:USB_DEVICE/Target/usbd_conf.c ****   HAL_StatusTypeDef hal_status = HAL_OK;
 352:USB_DEVICE/Target/usbd_conf.c ****   USBD_StatusTypeDef usb_status = USBD_OK;
 353:USB_DEVICE/Target/usbd_conf.c **** 
 354:USB_DEVICE/Target/usbd_conf.c ****   hal_status = HAL_PCD_DeInit(pdev->pData);
 355:USB_DEVICE/Target/usbd_conf.c **** 
 356:USB_DEVICE/Target/usbd_conf.c ****   usb_status =  USBD_Get_USB_Status(hal_status);
 357:USB_DEVICE/Target/usbd_conf.c **** 
 358:USB_DEVICE/Target/usbd_conf.c ****   return usb_status;
 359:USB_DEVICE/Target/usbd_conf.c **** }
 360:USB_DEVICE/Target/usbd_conf.c **** 
 361:USB_DEVICE/Target/usbd_conf.c **** /**
 362:USB_DEVICE/Target/usbd_conf.c ****   * @brief  Starts the low level portion of the device driver.
 363:USB_DEVICE/Target/usbd_conf.c ****   * @param  pdev: Device handle
 364:USB_DEVICE/Target/usbd_conf.c ****   * @retval USBD status
 365:USB_DEVICE/Target/usbd_conf.c ****   */
 366:USB_DEVICE/Target/usbd_conf.c **** USBD_StatusTypeDef USBD_LL_Start(USBD_HandleTypeDef *pdev)
 367:USB_DEVICE/Target/usbd_conf.c **** {
 368:USB_DEVICE/Target/usbd_conf.c ****   HAL_StatusTypeDef hal_status = HAL_OK;
 369:USB_DEVICE/Target/usbd_conf.c ****   USBD_StatusTypeDef usb_status = USBD_OK;
 370:USB_DEVICE/Target/usbd_conf.c **** 
 371:USB_DEVICE/Target/usbd_conf.c ****   hal_status = HAL_PCD_Start(pdev->pData);
 372:USB_DEVICE/Target/usbd_conf.c **** 
ARM GAS  C:\Users\Simio\AppData\Local\Temp\ccX5nZ0t.s 			page 8


 373:USB_DEVICE/Target/usbd_conf.c ****   usb_status =  USBD_Get_USB_Status(hal_status);
 374:USB_DEVICE/Target/usbd_conf.c **** 
 375:USB_DEVICE/Target/usbd_conf.c ****   return usb_status;
 376:USB_DEVICE/Target/usbd_conf.c **** }
 377:USB_DEVICE/Target/usbd_conf.c **** 
 378:USB_DEVICE/Target/usbd_conf.c **** /**
 379:USB_DEVICE/Target/usbd_conf.c ****   * @brief  Stops the low level portion of the device driver.
 380:USB_DEVICE/Target/usbd_conf.c ****   * @param  pdev: Device handle
 381:USB_DEVICE/Target/usbd_conf.c ****   * @retval USBD status
 382:USB_DEVICE/Target/usbd_conf.c ****   */
 383:USB_DEVICE/Target/usbd_conf.c **** USBD_StatusTypeDef USBD_LL_Stop(USBD_HandleTypeDef *pdev)
 384:USB_DEVICE/Target/usbd_conf.c **** {
 385:USB_DEVICE/Target/usbd_conf.c ****   HAL_StatusTypeDef hal_status = HAL_OK;
 386:USB_DEVICE/Target/usbd_conf.c ****   USBD_StatusTypeDef usb_status = USBD_OK;
 387:USB_DEVICE/Target/usbd_conf.c **** 
 388:USB_DEVICE/Target/usbd_conf.c ****   hal_status = HAL_PCD_Stop(pdev->pData);
 389:USB_DEVICE/Target/usbd_conf.c **** 
 390:USB_DEVICE/Target/usbd_conf.c ****   usb_status =  USBD_Get_USB_Status(hal_status);
 391:USB_DEVICE/Target/usbd_conf.c **** 
 392:USB_DEVICE/Target/usbd_conf.c ****   return usb_status;
 393:USB_DEVICE/Target/usbd_conf.c **** }
 394:USB_DEVICE/Target/usbd_conf.c **** 
 395:USB_DEVICE/Target/usbd_conf.c **** /**
 396:USB_DEVICE/Target/usbd_conf.c ****   * @brief  Opens an endpoint of the low level driver.
 397:USB_DEVICE/Target/usbd_conf.c ****   * @param  pdev: Device handle
 398:USB_DEVICE/Target/usbd_conf.c ****   * @param  ep_addr: Endpoint number
 399:USB_DEVICE/Target/usbd_conf.c ****   * @param  ep_type: Endpoint type
 400:USB_DEVICE/Target/usbd_conf.c ****   * @param  ep_mps: Endpoint max packet size
 401:USB_DEVICE/Target/usbd_conf.c ****   * @retval USBD status
 402:USB_DEVICE/Target/usbd_conf.c ****   */
 403:USB_DEVICE/Target/usbd_conf.c **** USBD_StatusTypeDef USBD_LL_OpenEP(USBD_HandleTypeDef *pdev, uint8_t ep_addr, uint8_t ep_type, uint1
 404:USB_DEVICE/Target/usbd_conf.c **** {
 405:USB_DEVICE/Target/usbd_conf.c ****   HAL_StatusTypeDef hal_status = HAL_OK;
 406:USB_DEVICE/Target/usbd_conf.c ****   USBD_StatusTypeDef usb_status = USBD_OK;
 407:USB_DEVICE/Target/usbd_conf.c **** 
 408:USB_DEVICE/Target/usbd_conf.c ****   hal_status = HAL_PCD_EP_Open(pdev->pData, ep_addr, ep_mps, ep_type);
 409:USB_DEVICE/Target/usbd_conf.c **** 
 410:USB_DEVICE/Target/usbd_conf.c ****   usb_status =  USBD_Get_USB_Status(hal_status);
 411:USB_DEVICE/Target/usbd_conf.c **** 
 412:USB_DEVICE/Target/usbd_conf.c ****   return usb_status;
 413:USB_DEVICE/Target/usbd_conf.c **** }
 414:USB_DEVICE/Target/usbd_conf.c **** 
 415:USB_DEVICE/Target/usbd_conf.c **** /**
 416:USB_DEVICE/Target/usbd_conf.c ****   * @brief  Closes an endpoint of the low level driver.
 417:USB_DEVICE/Target/usbd_conf.c ****   * @param  pdev: Device handle
 418:USB_DEVICE/Target/usbd_conf.c ****   * @param  ep_addr: Endpoint number
 419:USB_DEVICE/Target/usbd_conf.c ****   * @retval USBD status
 420:USB_DEVICE/Target/usbd_conf.c ****   */
 421:USB_DEVICE/Target/usbd_conf.c **** USBD_StatusTypeDef USBD_LL_CloseEP(USBD_HandleTypeDef *pdev, uint8_t ep_addr)
 422:USB_DEVICE/Target/usbd_conf.c **** {
 423:USB_DEVICE/Target/usbd_conf.c ****   HAL_StatusTypeDef hal_status = HAL_OK;
 424:USB_DEVICE/Target/usbd_conf.c ****   USBD_StatusTypeDef usb_status = USBD_OK;
 425:USB_DEVICE/Target/usbd_conf.c **** 
 426:USB_DEVICE/Target/usbd_conf.c ****   hal_status = HAL_PCD_EP_Close(pdev->pData, ep_addr);
 427:USB_DEVICE/Target/usbd_conf.c **** 
 428:USB_DEVICE/Target/usbd_conf.c ****   usb_status =  USBD_Get_USB_Status(hal_status);
 429:USB_DEVICE/Target/usbd_conf.c **** 
ARM GAS  C:\Users\Simio\AppData\Local\Temp\ccX5nZ0t.s 			page 9


 430:USB_DEVICE/Target/usbd_conf.c ****   return usb_status;
 431:USB_DEVICE/Target/usbd_conf.c **** }
 432:USB_DEVICE/Target/usbd_conf.c **** 
 433:USB_DEVICE/Target/usbd_conf.c **** /**
 434:USB_DEVICE/Target/usbd_conf.c ****   * @brief  Flushes an endpoint of the Low Level Driver.
 435:USB_DEVICE/Target/usbd_conf.c ****   * @param  pdev: Device handle
 436:USB_DEVICE/Target/usbd_conf.c ****   * @param  ep_addr: Endpoint number
 437:USB_DEVICE/Target/usbd_conf.c ****   * @retval USBD status
 438:USB_DEVICE/Target/usbd_conf.c ****   */
 439:USB_DEVICE/Target/usbd_conf.c **** USBD_StatusTypeDef USBD_LL_FlushEP(USBD_HandleTypeDef *pdev, uint8_t ep_addr)
 440:USB_DEVICE/Target/usbd_conf.c **** {
 441:USB_DEVICE/Target/usbd_conf.c ****   HAL_StatusTypeDef hal_status = HAL_OK;
 442:USB_DEVICE/Target/usbd_conf.c ****   USBD_StatusTypeDef usb_status = USBD_OK;
 443:USB_DEVICE/Target/usbd_conf.c **** 
 444:USB_DEVICE/Target/usbd_conf.c ****   hal_status = HAL_PCD_EP_Flush(pdev->pData, ep_addr);
 445:USB_DEVICE/Target/usbd_conf.c **** 
 446:USB_DEVICE/Target/usbd_conf.c ****   usb_status =  USBD_Get_USB_Status(hal_status);
 447:USB_DEVICE/Target/usbd_conf.c **** 
 448:USB_DEVICE/Target/usbd_conf.c ****   return usb_status;
 449:USB_DEVICE/Target/usbd_conf.c **** }
 450:USB_DEVICE/Target/usbd_conf.c **** 
 451:USB_DEVICE/Target/usbd_conf.c **** /**
 452:USB_DEVICE/Target/usbd_conf.c ****   * @brief  Sets a Stall condition on an endpoint of the Low Level Driver.
 453:USB_DEVICE/Target/usbd_conf.c ****   * @param  pdev: Device handle
 454:USB_DEVICE/Target/usbd_conf.c ****   * @param  ep_addr: Endpoint number
 455:USB_DEVICE/Target/usbd_conf.c ****   * @retval USBD status
 456:USB_DEVICE/Target/usbd_conf.c ****   */
 457:USB_DEVICE/Target/usbd_conf.c **** USBD_StatusTypeDef USBD_LL_StallEP(USBD_HandleTypeDef *pdev, uint8_t ep_addr)
 458:USB_DEVICE/Target/usbd_conf.c **** {
 459:USB_DEVICE/Target/usbd_conf.c ****   HAL_StatusTypeDef hal_status = HAL_OK;
 460:USB_DEVICE/Target/usbd_conf.c ****   USBD_StatusTypeDef usb_status = USBD_OK;
 461:USB_DEVICE/Target/usbd_conf.c **** 
 462:USB_DEVICE/Target/usbd_conf.c ****   hal_status = HAL_PCD_EP_SetStall(pdev->pData, ep_addr);
 463:USB_DEVICE/Target/usbd_conf.c **** 
 464:USB_DEVICE/Target/usbd_conf.c ****   usb_status =  USBD_Get_USB_Status(hal_status);
 465:USB_DEVICE/Target/usbd_conf.c **** 
 466:USB_DEVICE/Target/usbd_conf.c ****   return usb_status;
 467:USB_DEVICE/Target/usbd_conf.c **** }
 468:USB_DEVICE/Target/usbd_conf.c **** 
 469:USB_DEVICE/Target/usbd_conf.c **** /**
 470:USB_DEVICE/Target/usbd_conf.c ****   * @brief  Clears a Stall condition on an endpoint of the Low Level Driver.
 471:USB_DEVICE/Target/usbd_conf.c ****   * @param  pdev: Device handle
 472:USB_DEVICE/Target/usbd_conf.c ****   * @param  ep_addr: Endpoint number
 473:USB_DEVICE/Target/usbd_conf.c ****   * @retval USBD status
 474:USB_DEVICE/Target/usbd_conf.c ****   */
 475:USB_DEVICE/Target/usbd_conf.c **** USBD_StatusTypeDef USBD_LL_ClearStallEP(USBD_HandleTypeDef *pdev, uint8_t ep_addr)
 476:USB_DEVICE/Target/usbd_conf.c **** {
 477:USB_DEVICE/Target/usbd_conf.c ****   HAL_StatusTypeDef hal_status = HAL_OK;
 478:USB_DEVICE/Target/usbd_conf.c ****   USBD_StatusTypeDef usb_status = USBD_OK;
 479:USB_DEVICE/Target/usbd_conf.c **** 
 480:USB_DEVICE/Target/usbd_conf.c ****   hal_status = HAL_PCD_EP_ClrStall(pdev->pData, ep_addr);
 481:USB_DEVICE/Target/usbd_conf.c **** 
 482:USB_DEVICE/Target/usbd_conf.c ****   usb_status =  USBD_Get_USB_Status(hal_status);
 483:USB_DEVICE/Target/usbd_conf.c **** 
 484:USB_DEVICE/Target/usbd_conf.c ****   return usb_status;
 485:USB_DEVICE/Target/usbd_conf.c **** }
 486:USB_DEVICE/Target/usbd_conf.c **** 
ARM GAS  C:\Users\Simio\AppData\Local\Temp\ccX5nZ0t.s 			page 10


 487:USB_DEVICE/Target/usbd_conf.c **** /**
 488:USB_DEVICE/Target/usbd_conf.c ****   * @brief  Returns Stall condition.
 489:USB_DEVICE/Target/usbd_conf.c ****   * @param  pdev: Device handle
 490:USB_DEVICE/Target/usbd_conf.c ****   * @param  ep_addr: Endpoint number
 491:USB_DEVICE/Target/usbd_conf.c ****   * @retval Stall (1: Yes, 0: No)
 492:USB_DEVICE/Target/usbd_conf.c ****   */
 493:USB_DEVICE/Target/usbd_conf.c **** uint8_t USBD_LL_IsStallEP(USBD_HandleTypeDef *pdev, uint8_t ep_addr)
 494:USB_DEVICE/Target/usbd_conf.c **** {
 495:USB_DEVICE/Target/usbd_conf.c ****   PCD_HandleTypeDef *hpcd = (PCD_HandleTypeDef*) pdev->pData;
 496:USB_DEVICE/Target/usbd_conf.c **** 
 497:USB_DEVICE/Target/usbd_conf.c ****   if((ep_addr & 0x80) == 0x80)
 498:USB_DEVICE/Target/usbd_conf.c ****   {
 499:USB_DEVICE/Target/usbd_conf.c ****     return hpcd->IN_ep[ep_addr & 0x7F].is_stall;
 500:USB_DEVICE/Target/usbd_conf.c ****   }
 501:USB_DEVICE/Target/usbd_conf.c ****   else
 502:USB_DEVICE/Target/usbd_conf.c ****   {
 503:USB_DEVICE/Target/usbd_conf.c ****     return hpcd->OUT_ep[ep_addr & 0x7F].is_stall;
 504:USB_DEVICE/Target/usbd_conf.c ****   }
 505:USB_DEVICE/Target/usbd_conf.c **** }
 506:USB_DEVICE/Target/usbd_conf.c **** 
 507:USB_DEVICE/Target/usbd_conf.c **** /**
 508:USB_DEVICE/Target/usbd_conf.c ****   * @brief  Assigns a USB address to the device.
 509:USB_DEVICE/Target/usbd_conf.c ****   * @param  pdev: Device handle
 510:USB_DEVICE/Target/usbd_conf.c ****   * @param  dev_addr: Device address
 511:USB_DEVICE/Target/usbd_conf.c ****   * @retval USBD status
 512:USB_DEVICE/Target/usbd_conf.c ****   */
 513:USB_DEVICE/Target/usbd_conf.c **** USBD_StatusTypeDef USBD_LL_SetUSBAddress(USBD_HandleTypeDef *pdev, uint8_t dev_addr)
 514:USB_DEVICE/Target/usbd_conf.c **** {
 515:USB_DEVICE/Target/usbd_conf.c ****   HAL_StatusTypeDef hal_status = HAL_OK;
 516:USB_DEVICE/Target/usbd_conf.c ****   USBD_StatusTypeDef usb_status = USBD_OK;
 517:USB_DEVICE/Target/usbd_conf.c **** 
 518:USB_DEVICE/Target/usbd_conf.c ****   hal_status = HAL_PCD_SetAddress(pdev->pData, dev_addr);
 519:USB_DEVICE/Target/usbd_conf.c **** 
 520:USB_DEVICE/Target/usbd_conf.c ****   usb_status =  USBD_Get_USB_Status(hal_status);
 521:USB_DEVICE/Target/usbd_conf.c **** 
 522:USB_DEVICE/Target/usbd_conf.c ****   return usb_status;
 523:USB_DEVICE/Target/usbd_conf.c **** }
 524:USB_DEVICE/Target/usbd_conf.c **** 
 525:USB_DEVICE/Target/usbd_conf.c **** /**
 526:USB_DEVICE/Target/usbd_conf.c ****   * @brief  Transmits data over an endpoint.
 527:USB_DEVICE/Target/usbd_conf.c ****   * @param  pdev: Device handle
 528:USB_DEVICE/Target/usbd_conf.c ****   * @param  ep_addr: Endpoint number
 529:USB_DEVICE/Target/usbd_conf.c ****   * @param  pbuf: Pointer to data to be sent
 530:USB_DEVICE/Target/usbd_conf.c ****   * @param  size: Data size
 531:USB_DEVICE/Target/usbd_conf.c ****   * @retval USBD status
 532:USB_DEVICE/Target/usbd_conf.c ****   */
 533:USB_DEVICE/Target/usbd_conf.c **** USBD_StatusTypeDef USBD_LL_Transmit(USBD_HandleTypeDef *pdev, uint8_t ep_addr, uint8_t *pbuf, uint1
 534:USB_DEVICE/Target/usbd_conf.c **** {
 535:USB_DEVICE/Target/usbd_conf.c ****   HAL_StatusTypeDef hal_status = HAL_OK;
 536:USB_DEVICE/Target/usbd_conf.c ****   USBD_StatusTypeDef usb_status = USBD_OK;
 537:USB_DEVICE/Target/usbd_conf.c **** 
 538:USB_DEVICE/Target/usbd_conf.c ****   hal_status = HAL_PCD_EP_Transmit(pdev->pData, ep_addr, pbuf, size);
 539:USB_DEVICE/Target/usbd_conf.c **** 
 540:USB_DEVICE/Target/usbd_conf.c ****   usb_status =  USBD_Get_USB_Status(hal_status);
 541:USB_DEVICE/Target/usbd_conf.c **** 
 542:USB_DEVICE/Target/usbd_conf.c ****   return usb_status;
 543:USB_DEVICE/Target/usbd_conf.c **** }
ARM GAS  C:\Users\Simio\AppData\Local\Temp\ccX5nZ0t.s 			page 11


 544:USB_DEVICE/Target/usbd_conf.c **** 
 545:USB_DEVICE/Target/usbd_conf.c **** /**
 546:USB_DEVICE/Target/usbd_conf.c ****   * @brief  Prepares an endpoint for reception.
 547:USB_DEVICE/Target/usbd_conf.c ****   * @param  pdev: Device handle
 548:USB_DEVICE/Target/usbd_conf.c ****   * @param  ep_addr: Endpoint number
 549:USB_DEVICE/Target/usbd_conf.c ****   * @param  pbuf: Pointer to data to be received
 550:USB_DEVICE/Target/usbd_conf.c ****   * @param  size: Data size
 551:USB_DEVICE/Target/usbd_conf.c ****   * @retval USBD status
 552:USB_DEVICE/Target/usbd_conf.c ****   */
 553:USB_DEVICE/Target/usbd_conf.c **** USBD_StatusTypeDef USBD_LL_PrepareReceive(USBD_HandleTypeDef *pdev, uint8_t ep_addr, uint8_t *pbuf,
 554:USB_DEVICE/Target/usbd_conf.c **** {
 555:USB_DEVICE/Target/usbd_conf.c ****   HAL_StatusTypeDef hal_status = HAL_OK;
 556:USB_DEVICE/Target/usbd_conf.c ****   USBD_StatusTypeDef usb_status = USBD_OK;
 557:USB_DEVICE/Target/usbd_conf.c **** 
 558:USB_DEVICE/Target/usbd_conf.c ****   hal_status = HAL_PCD_EP_Receive(pdev->pData, ep_addr, pbuf, size);
 559:USB_DEVICE/Target/usbd_conf.c **** 
 560:USB_DEVICE/Target/usbd_conf.c ****   usb_status =  USBD_Get_USB_Status(hal_status);
 561:USB_DEVICE/Target/usbd_conf.c **** 
 562:USB_DEVICE/Target/usbd_conf.c ****   return usb_status;
 563:USB_DEVICE/Target/usbd_conf.c **** }
 564:USB_DEVICE/Target/usbd_conf.c **** 
 565:USB_DEVICE/Target/usbd_conf.c **** /**
 566:USB_DEVICE/Target/usbd_conf.c ****   * @brief  Returns the last transferred packet size.
 567:USB_DEVICE/Target/usbd_conf.c ****   * @param  pdev: Device handle
 568:USB_DEVICE/Target/usbd_conf.c ****   * @param  ep_addr: Endpoint number
 569:USB_DEVICE/Target/usbd_conf.c ****   * @retval Received Data Size
 570:USB_DEVICE/Target/usbd_conf.c ****   */
 571:USB_DEVICE/Target/usbd_conf.c **** uint32_t USBD_LL_GetRxDataSize(USBD_HandleTypeDef *pdev, uint8_t ep_addr)
 572:USB_DEVICE/Target/usbd_conf.c **** {
 573:USB_DEVICE/Target/usbd_conf.c ****   return HAL_PCD_EP_GetRxCount((PCD_HandleTypeDef*) pdev->pData, ep_addr);
 574:USB_DEVICE/Target/usbd_conf.c **** }
 575:USB_DEVICE/Target/usbd_conf.c **** 
 576:USB_DEVICE/Target/usbd_conf.c **** /**
 577:USB_DEVICE/Target/usbd_conf.c ****   * @brief  Delays routine for the USB device library.
 578:USB_DEVICE/Target/usbd_conf.c ****   * @param  Delay: Delay in ms
 579:USB_DEVICE/Target/usbd_conf.c ****   * @retval None
 580:USB_DEVICE/Target/usbd_conf.c ****   */
 581:USB_DEVICE/Target/usbd_conf.c **** void USBD_LL_Delay(uint32_t Delay)
 582:USB_DEVICE/Target/usbd_conf.c **** {
 583:USB_DEVICE/Target/usbd_conf.c ****   HAL_Delay(Delay);
 584:USB_DEVICE/Target/usbd_conf.c **** }
 585:USB_DEVICE/Target/usbd_conf.c **** 
 586:USB_DEVICE/Target/usbd_conf.c **** /**
 587:USB_DEVICE/Target/usbd_conf.c ****   * @brief  Static single allocation.
 588:USB_DEVICE/Target/usbd_conf.c ****   * @param  size: Size of allocated memory
 589:USB_DEVICE/Target/usbd_conf.c ****   * @retval None
 590:USB_DEVICE/Target/usbd_conf.c ****   */
 591:USB_DEVICE/Target/usbd_conf.c **** void *USBD_static_malloc(uint32_t size)
 592:USB_DEVICE/Target/usbd_conf.c **** {
 593:USB_DEVICE/Target/usbd_conf.c ****   static uint32_t mem[(sizeof(USBD_CDC_HandleTypeDef)/4)+1];/* On 32-bit boundary */
 594:USB_DEVICE/Target/usbd_conf.c ****   return mem;
 595:USB_DEVICE/Target/usbd_conf.c **** }
 596:USB_DEVICE/Target/usbd_conf.c **** 
 597:USB_DEVICE/Target/usbd_conf.c **** /**
 598:USB_DEVICE/Target/usbd_conf.c ****   * @brief  Dummy memory free
 599:USB_DEVICE/Target/usbd_conf.c ****   * @param  p: Pointer to allocated  memory address
 600:USB_DEVICE/Target/usbd_conf.c ****   * @retval None
ARM GAS  C:\Users\Simio\AppData\Local\Temp\ccX5nZ0t.s 			page 12


 601:USB_DEVICE/Target/usbd_conf.c ****   */
 602:USB_DEVICE/Target/usbd_conf.c **** void USBD_static_free(void *p)
 603:USB_DEVICE/Target/usbd_conf.c **** {
 604:USB_DEVICE/Target/usbd_conf.c **** 
 605:USB_DEVICE/Target/usbd_conf.c **** }
 606:USB_DEVICE/Target/usbd_conf.c **** 
 607:USB_DEVICE/Target/usbd_conf.c **** /**
 608:USB_DEVICE/Target/usbd_conf.c ****   * @brief Software device connection
 609:USB_DEVICE/Target/usbd_conf.c ****   * @param hpcd: PCD handle
 610:USB_DEVICE/Target/usbd_conf.c ****   * @param state: Connection state (0: disconnected / 1: connected)
 611:USB_DEVICE/Target/usbd_conf.c ****   * @retval None
 612:USB_DEVICE/Target/usbd_conf.c ****   */
 613:USB_DEVICE/Target/usbd_conf.c **** #if (USE_HAL_PCD_REGISTER_CALLBACKS == 1U)
 614:USB_DEVICE/Target/usbd_conf.c **** void PCDEx_SetConnectionState(PCD_HandleTypeDef *hpcd, uint8_t state)
 615:USB_DEVICE/Target/usbd_conf.c **** #else
 616:USB_DEVICE/Target/usbd_conf.c **** void HAL_PCDEx_SetConnectionState(PCD_HandleTypeDef *hpcd, uint8_t state)
 617:USB_DEVICE/Target/usbd_conf.c **** #endif /* USE_HAL_PCD_REGISTER_CALLBACKS */
 618:USB_DEVICE/Target/usbd_conf.c **** {
 619:USB_DEVICE/Target/usbd_conf.c ****   /* USER CODE BEGIN 6 */
 620:USB_DEVICE/Target/usbd_conf.c ****   if (state == 1)
 621:USB_DEVICE/Target/usbd_conf.c ****   {
 622:USB_DEVICE/Target/usbd_conf.c ****     /* Configure Low connection state. */
 623:USB_DEVICE/Target/usbd_conf.c **** 
 624:USB_DEVICE/Target/usbd_conf.c ****   }
 625:USB_DEVICE/Target/usbd_conf.c ****   else
 626:USB_DEVICE/Target/usbd_conf.c ****   {
 627:USB_DEVICE/Target/usbd_conf.c ****     /* Configure High connection state. */
 628:USB_DEVICE/Target/usbd_conf.c **** 
 629:USB_DEVICE/Target/usbd_conf.c ****   }
 630:USB_DEVICE/Target/usbd_conf.c ****   /* USER CODE END 6 */
 631:USB_DEVICE/Target/usbd_conf.c **** }
 632:USB_DEVICE/Target/usbd_conf.c **** 
 633:USB_DEVICE/Target/usbd_conf.c **** /**
 634:USB_DEVICE/Target/usbd_conf.c ****   * @brief  Returns the USB status depending on the HAL status:
 635:USB_DEVICE/Target/usbd_conf.c ****   * @param  hal_status: HAL status
 636:USB_DEVICE/Target/usbd_conf.c ****   * @retval USB status
 637:USB_DEVICE/Target/usbd_conf.c ****   */
 638:USB_DEVICE/Target/usbd_conf.c **** USBD_StatusTypeDef USBD_Get_USB_Status(HAL_StatusTypeDef hal_status)
 639:USB_DEVICE/Target/usbd_conf.c **** {
  29              		.loc 1 639 1 view -0
  30              		.cfi_startproc
  31              		@ args = 0, pretend = 0, frame = 0
  32              		@ frame_needed = 0, uses_anonymous_args = 0
  33              		@ link register save eliminated.
 640:USB_DEVICE/Target/usbd_conf.c ****   USBD_StatusTypeDef usb_status = USBD_OK;
  34              		.loc 1 640 3 view .LVU1
 641:USB_DEVICE/Target/usbd_conf.c **** 
 642:USB_DEVICE/Target/usbd_conf.c ****   switch (hal_status)
  35              		.loc 1 642 3 view .LVU2
  36 0000 0228     		cmp	r0, #2
  37 0002 05D8     		bhi	.L6
  38 0004 DFE800F0 		tbb	[pc, r0]
  39              	.L4:
  40 0008 05       		.byte	(.L2-.L4)/2
  41 0009 04       		.byte	(.L6-.L4)/2
  42 000a 02       		.byte	(.L3-.L4)/2
  43 000b 00       		.p2align 1
ARM GAS  C:\Users\Simio\AppData\Local\Temp\ccX5nZ0t.s 			page 13


  44              	.L3:
 643:USB_DEVICE/Target/usbd_conf.c ****   {
 644:USB_DEVICE/Target/usbd_conf.c ****     case HAL_OK :
 645:USB_DEVICE/Target/usbd_conf.c ****       usb_status = USBD_OK;
 646:USB_DEVICE/Target/usbd_conf.c ****     break;
 647:USB_DEVICE/Target/usbd_conf.c ****     case HAL_ERROR :
 648:USB_DEVICE/Target/usbd_conf.c ****       usb_status = USBD_FAIL;
 649:USB_DEVICE/Target/usbd_conf.c ****     break;
 650:USB_DEVICE/Target/usbd_conf.c ****     case HAL_BUSY :
 651:USB_DEVICE/Target/usbd_conf.c ****       usb_status = USBD_BUSY;
  45              		.loc 1 651 7 view .LVU3
  46              	.LVL1:
 652:USB_DEVICE/Target/usbd_conf.c ****     break;
  47              		.loc 1 652 5 view .LVU4
 651:USB_DEVICE/Target/usbd_conf.c ****     break;
  48              		.loc 1 651 18 is_stmt 0 view .LVU5
  49 000c 0120     		movs	r0, #1
  50              	.LVL2:
  51              		.loc 1 652 5 view .LVU6
  52 000e 7047     		bx	lr
  53              	.LVL3:
  54              	.L6:
 648:USB_DEVICE/Target/usbd_conf.c ****     break;
  55              		.loc 1 648 18 view .LVU7
  56 0010 0220     		movs	r0, #2
  57              	.LVL4:
  58              	.L2:
 653:USB_DEVICE/Target/usbd_conf.c ****     case HAL_TIMEOUT :
 654:USB_DEVICE/Target/usbd_conf.c ****       usb_status = USBD_FAIL;
 655:USB_DEVICE/Target/usbd_conf.c ****     break;
 656:USB_DEVICE/Target/usbd_conf.c ****     default :
 657:USB_DEVICE/Target/usbd_conf.c ****       usb_status = USBD_FAIL;
 658:USB_DEVICE/Target/usbd_conf.c ****     break;
 659:USB_DEVICE/Target/usbd_conf.c ****   }
 660:USB_DEVICE/Target/usbd_conf.c ****   return usb_status;
  59              		.loc 1 660 3 is_stmt 1 view .LVU8
 661:USB_DEVICE/Target/usbd_conf.c **** }
  60              		.loc 1 661 1 is_stmt 0 view .LVU9
  61 0012 7047     		bx	lr
  62              		.cfi_endproc
  63              	.LFE157:
  65              		.section	.text.HAL_PCD_MspInit,"ax",%progbits
  66              		.align	1
  67              		.global	HAL_PCD_MspInit
  68              		.syntax unified
  69              		.thumb
  70              		.thumb_func
  72              	HAL_PCD_MspInit:
  73              	.LVL5:
  74              	.LFB126:
  70:USB_DEVICE/Target/usbd_conf.c ****   if(pcdHandle->Instance==USB)
  75              		.loc 1 70 1 is_stmt 1 view -0
  76              		.cfi_startproc
  77              		@ args = 0, pretend = 0, frame = 8
  78              		@ frame_needed = 0, uses_anonymous_args = 0
  71:USB_DEVICE/Target/usbd_conf.c ****   {
  79              		.loc 1 71 3 view .LVU11
ARM GAS  C:\Users\Simio\AppData\Local\Temp\ccX5nZ0t.s 			page 14


  71:USB_DEVICE/Target/usbd_conf.c ****   {
  80              		.loc 1 71 15 is_stmt 0 view .LVU12
  81 0000 0268     		ldr	r2, [r0]
  71:USB_DEVICE/Target/usbd_conf.c ****   {
  82              		.loc 1 71 5 view .LVU13
  83 0002 104B     		ldr	r3, .L14
  84 0004 9A42     		cmp	r2, r3
  85 0006 00D0     		beq	.L13
  86 0008 7047     		bx	lr
  87              	.L13:
  70:USB_DEVICE/Target/usbd_conf.c ****   if(pcdHandle->Instance==USB)
  88              		.loc 1 70 1 view .LVU14
  89 000a 00B5     		push	{lr}
  90              	.LCFI0:
  91              		.cfi_def_cfa_offset 4
  92              		.cfi_offset 14, -4
  93 000c 83B0     		sub	sp, sp, #12
  94              	.LCFI1:
  95              		.cfi_def_cfa_offset 16
  77:USB_DEVICE/Target/usbd_conf.c **** 
  96              		.loc 1 77 5 is_stmt 1 view .LVU15
  97              	.LBB2:
  77:USB_DEVICE/Target/usbd_conf.c **** 
  98              		.loc 1 77 5 view .LVU16
  77:USB_DEVICE/Target/usbd_conf.c **** 
  99              		.loc 1 77 5 view .LVU17
 100 000e 03F5DA33 		add	r3, r3, #111616
 101 0012 DA69     		ldr	r2, [r3, #28]
 102 0014 42F40002 		orr	r2, r2, #8388608
 103 0018 DA61     		str	r2, [r3, #28]
  77:USB_DEVICE/Target/usbd_conf.c **** 
 104              		.loc 1 77 5 view .LVU18
 105 001a DB69     		ldr	r3, [r3, #28]
 106 001c 03F40003 		and	r3, r3, #8388608
 107 0020 0193     		str	r3, [sp, #4]
  77:USB_DEVICE/Target/usbd_conf.c **** 
 108              		.loc 1 77 5 view .LVU19
 109 0022 019B     		ldr	r3, [sp, #4]
 110              	.LBE2:
  77:USB_DEVICE/Target/usbd_conf.c **** 
 111              		.loc 1 77 5 view .LVU20
  80:USB_DEVICE/Target/usbd_conf.c ****     HAL_NVIC_SetPriority(USB_LP_IRQn, 0, 0);
 112              		.loc 1 80 5 view .LVU21
 113 0024 084A     		ldr	r2, .L14+4
 114 0026 1368     		ldr	r3, [r2]
 115 0028 43F02003 		orr	r3, r3, #32
 116 002c 1360     		str	r3, [r2]
  81:USB_DEVICE/Target/usbd_conf.c ****     HAL_NVIC_EnableIRQ(USB_LP_IRQn);
 117              		.loc 1 81 5 view .LVU22
 118 002e 0022     		movs	r2, #0
 119 0030 1146     		mov	r1, r2
 120 0032 4B20     		movs	r0, #75
 121              	.LVL6:
  81:USB_DEVICE/Target/usbd_conf.c ****     HAL_NVIC_EnableIRQ(USB_LP_IRQn);
 122              		.loc 1 81 5 is_stmt 0 view .LVU23
 123 0034 FFF7FEFF 		bl	HAL_NVIC_SetPriority
 124              	.LVL7:
ARM GAS  C:\Users\Simio\AppData\Local\Temp\ccX5nZ0t.s 			page 15


  82:USB_DEVICE/Target/usbd_conf.c ****   /* USER CODE BEGIN USB_MspInit 1 */
 125              		.loc 1 82 5 is_stmt 1 view .LVU24
 126 0038 4B20     		movs	r0, #75
 127 003a FFF7FEFF 		bl	HAL_NVIC_EnableIRQ
 128              	.LVL8:
  87:USB_DEVICE/Target/usbd_conf.c **** 
 129              		.loc 1 87 1 is_stmt 0 view .LVU25
 130 003e 03B0     		add	sp, sp, #12
 131              	.LCFI2:
 132              		.cfi_def_cfa_offset 4
 133              		@ sp needed
 134 0040 5DF804FB 		ldr	pc, [sp], #4
 135              	.L15:
 136              		.align	2
 137              	.L14:
 138 0044 005C0040 		.word	1073765376
 139 0048 00000140 		.word	1073807360
 140              		.cfi_endproc
 141              	.LFE126:
 143              		.section	.text.HAL_PCD_MspDeInit,"ax",%progbits
 144              		.align	1
 145              		.global	HAL_PCD_MspDeInit
 146              		.syntax unified
 147              		.thumb
 148              		.thumb_func
 150              	HAL_PCD_MspDeInit:
 151              	.LVL9:
 152              	.LFB127:
  90:USB_DEVICE/Target/usbd_conf.c ****   if(pcdHandle->Instance==USB)
 153              		.loc 1 90 1 is_stmt 1 view -0
 154              		.cfi_startproc
 155              		@ args = 0, pretend = 0, frame = 0
 156              		@ frame_needed = 0, uses_anonymous_args = 0
  90:USB_DEVICE/Target/usbd_conf.c ****   if(pcdHandle->Instance==USB)
 157              		.loc 1 90 1 is_stmt 0 view .LVU27
 158 0000 08B5     		push	{r3, lr}
 159              	.LCFI3:
 160              		.cfi_def_cfa_offset 8
 161              		.cfi_offset 3, -8
 162              		.cfi_offset 14, -4
  91:USB_DEVICE/Target/usbd_conf.c ****   {
 163              		.loc 1 91 3 is_stmt 1 view .LVU28
  91:USB_DEVICE/Target/usbd_conf.c ****   {
 164              		.loc 1 91 15 is_stmt 0 view .LVU29
 165 0002 0268     		ldr	r2, [r0]
  91:USB_DEVICE/Target/usbd_conf.c ****   {
 166              		.loc 1 91 5 view .LVU30
 167 0004 064B     		ldr	r3, .L20
 168 0006 9A42     		cmp	r2, r3
 169 0008 00D0     		beq	.L19
 170              	.LVL10:
 171              	.L16:
 106:USB_DEVICE/Target/usbd_conf.c **** 
 172              		.loc 1 106 1 view .LVU31
 173 000a 08BD     		pop	{r3, pc}
 174              	.LVL11:
 175              	.L19:
ARM GAS  C:\Users\Simio\AppData\Local\Temp\ccX5nZ0t.s 			page 16


  97:USB_DEVICE/Target/usbd_conf.c **** 
 176              		.loc 1 97 5 is_stmt 1 view .LVU32
 177 000c 054A     		ldr	r2, .L20+4
 178 000e D369     		ldr	r3, [r2, #28]
 179 0010 23F40003 		bic	r3, r3, #8388608
 180 0014 D361     		str	r3, [r2, #28]
 100:USB_DEVICE/Target/usbd_conf.c **** 
 181              		.loc 1 100 5 view .LVU33
 182 0016 4B20     		movs	r0, #75
 183              	.LVL12:
 100:USB_DEVICE/Target/usbd_conf.c **** 
 184              		.loc 1 100 5 is_stmt 0 view .LVU34
 185 0018 FFF7FEFF 		bl	HAL_NVIC_DisableIRQ
 186              	.LVL13:
 106:USB_DEVICE/Target/usbd_conf.c **** 
 187              		.loc 1 106 1 view .LVU35
 188 001c F5E7     		b	.L16
 189              	.L21:
 190 001e 00BF     		.align	2
 191              	.L20:
 192 0020 005C0040 		.word	1073765376
 193 0024 00100240 		.word	1073876992
 194              		.cfi_endproc
 195              	.LFE127:
 197              		.section	.text.HAL_PCD_SetupStageCallback,"ax",%progbits
 198              		.align	1
 199              		.global	HAL_PCD_SetupStageCallback
 200              		.syntax unified
 201              		.thumb
 202              		.thumb_func
 204              	HAL_PCD_SetupStageCallback:
 205              	.LVL14:
 206              	.LFB128:
 118:USB_DEVICE/Target/usbd_conf.c ****   USBD_LL_SetupStage((USBD_HandleTypeDef*)hpcd->pData, (uint8_t *)hpcd->Setup);
 207              		.loc 1 118 1 is_stmt 1 view -0
 208              		.cfi_startproc
 209              		@ args = 0, pretend = 0, frame = 0
 210              		@ frame_needed = 0, uses_anonymous_args = 0
 118:USB_DEVICE/Target/usbd_conf.c ****   USBD_LL_SetupStage((USBD_HandleTypeDef*)hpcd->pData, (uint8_t *)hpcd->Setup);
 211              		.loc 1 118 1 is_stmt 0 view .LVU37
 212 0000 08B5     		push	{r3, lr}
 213              	.LCFI4:
 214              		.cfi_def_cfa_offset 8
 215              		.cfi_offset 3, -8
 216              		.cfi_offset 14, -4
 119:USB_DEVICE/Target/usbd_conf.c **** }
 217              		.loc 1 119 3 is_stmt 1 view .LVU38
 218 0002 00F52C71 		add	r1, r0, #688
 219 0006 D0F8E802 		ldr	r0, [r0, #744]
 220              	.LVL15:
 119:USB_DEVICE/Target/usbd_conf.c **** }
 221              		.loc 1 119 3 is_stmt 0 view .LVU39
 222 000a FFF7FEFF 		bl	USBD_LL_SetupStage
 223              	.LVL16:
 120:USB_DEVICE/Target/usbd_conf.c **** 
 224              		.loc 1 120 1 view .LVU40
 225 000e 08BD     		pop	{r3, pc}
ARM GAS  C:\Users\Simio\AppData\Local\Temp\ccX5nZ0t.s 			page 17


 226              		.cfi_endproc
 227              	.LFE128:
 229              		.section	.text.HAL_PCD_DataOutStageCallback,"ax",%progbits
 230              		.align	1
 231              		.global	HAL_PCD_DataOutStageCallback
 232              		.syntax unified
 233              		.thumb
 234              		.thumb_func
 236              	HAL_PCD_DataOutStageCallback:
 237              	.LVL17:
 238              	.LFB129:
 133:USB_DEVICE/Target/usbd_conf.c ****   USBD_LL_DataOutStage((USBD_HandleTypeDef*)hpcd->pData, epnum, hpcd->OUT_ep[epnum].xfer_buff);
 239              		.loc 1 133 1 is_stmt 1 view -0
 240              		.cfi_startproc
 241              		@ args = 0, pretend = 0, frame = 0
 242              		@ frame_needed = 0, uses_anonymous_args = 0
 133:USB_DEVICE/Target/usbd_conf.c ****   USBD_LL_DataOutStage((USBD_HandleTypeDef*)hpcd->pData, epnum, hpcd->OUT_ep[epnum].xfer_buff);
 243              		.loc 1 133 1 is_stmt 0 view .LVU42
 244 0000 08B5     		push	{r3, lr}
 245              	.LCFI5:
 246              		.cfi_def_cfa_offset 8
 247              		.cfi_offset 3, -8
 248              		.cfi_offset 14, -4
 134:USB_DEVICE/Target/usbd_conf.c **** }
 249              		.loc 1 134 3 is_stmt 1 view .LVU43
 250 0002 01EB8103 		add	r3, r1, r1, lsl #2
 251 0006 00EBC303 		add	r3, r0, r3, lsl #3
 252 000a D3F87C21 		ldr	r2, [r3, #380]
 253 000e D0F8E802 		ldr	r0, [r0, #744]
 254              	.LVL18:
 134:USB_DEVICE/Target/usbd_conf.c **** }
 255              		.loc 1 134 3 is_stmt 0 view .LVU44
 256 0012 FFF7FEFF 		bl	USBD_LL_DataOutStage
 257              	.LVL19:
 135:USB_DEVICE/Target/usbd_conf.c **** 
 258              		.loc 1 135 1 view .LVU45
 259 0016 08BD     		pop	{r3, pc}
 260              		.cfi_endproc
 261              	.LFE129:
 263              		.section	.text.HAL_PCD_DataInStageCallback,"ax",%progbits
 264              		.align	1
 265              		.global	HAL_PCD_DataInStageCallback
 266              		.syntax unified
 267              		.thumb
 268              		.thumb_func
 270              	HAL_PCD_DataInStageCallback:
 271              	.LVL20:
 272              	.LFB130:
 148:USB_DEVICE/Target/usbd_conf.c ****   USBD_LL_DataInStage((USBD_HandleTypeDef*)hpcd->pData, epnum, hpcd->IN_ep[epnum].xfer_buff);
 273              		.loc 1 148 1 is_stmt 1 view -0
 274              		.cfi_startproc
 275              		@ args = 0, pretend = 0, frame = 0
 276              		@ frame_needed = 0, uses_anonymous_args = 0
 148:USB_DEVICE/Target/usbd_conf.c ****   USBD_LL_DataInStage((USBD_HandleTypeDef*)hpcd->pData, epnum, hpcd->IN_ep[epnum].xfer_buff);
 277              		.loc 1 148 1 is_stmt 0 view .LVU47
 278 0000 08B5     		push	{r3, lr}
 279              	.LCFI6:
ARM GAS  C:\Users\Simio\AppData\Local\Temp\ccX5nZ0t.s 			page 18


 280              		.cfi_def_cfa_offset 8
 281              		.cfi_offset 3, -8
 282              		.cfi_offset 14, -4
 149:USB_DEVICE/Target/usbd_conf.c **** }
 283              		.loc 1 149 3 is_stmt 1 view .LVU48
 284 0002 01EB8103 		add	r3, r1, r1, lsl #2
 285 0006 00EBC303 		add	r3, r0, r3, lsl #3
 286 000a DA6B     		ldr	r2, [r3, #60]
 287 000c D0F8E802 		ldr	r0, [r0, #744]
 288              	.LVL21:
 149:USB_DEVICE/Target/usbd_conf.c **** }
 289              		.loc 1 149 3 is_stmt 0 view .LVU49
 290 0010 FFF7FEFF 		bl	USBD_LL_DataInStage
 291              	.LVL22:
 150:USB_DEVICE/Target/usbd_conf.c **** 
 292              		.loc 1 150 1 view .LVU50
 293 0014 08BD     		pop	{r3, pc}
 294              		.cfi_endproc
 295              	.LFE130:
 297              		.section	.text.HAL_PCD_SOFCallback,"ax",%progbits
 298              		.align	1
 299              		.global	HAL_PCD_SOFCallback
 300              		.syntax unified
 301              		.thumb
 302              		.thumb_func
 304              	HAL_PCD_SOFCallback:
 305              	.LVL23:
 306              	.LFB131:
 162:USB_DEVICE/Target/usbd_conf.c ****   USBD_LL_SOF((USBD_HandleTypeDef*)hpcd->pData);
 307              		.loc 1 162 1 is_stmt 1 view -0
 308              		.cfi_startproc
 309              		@ args = 0, pretend = 0, frame = 0
 310              		@ frame_needed = 0, uses_anonymous_args = 0
 162:USB_DEVICE/Target/usbd_conf.c ****   USBD_LL_SOF((USBD_HandleTypeDef*)hpcd->pData);
 311              		.loc 1 162 1 is_stmt 0 view .LVU52
 312 0000 08B5     		push	{r3, lr}
 313              	.LCFI7:
 314              		.cfi_def_cfa_offset 8
 315              		.cfi_offset 3, -8
 316              		.cfi_offset 14, -4
 163:USB_DEVICE/Target/usbd_conf.c **** }
 317              		.loc 1 163 3 is_stmt 1 view .LVU53
 318 0002 D0F8E802 		ldr	r0, [r0, #744]
 319              	.LVL24:
 163:USB_DEVICE/Target/usbd_conf.c **** }
 320              		.loc 1 163 3 is_stmt 0 view .LVU54
 321 0006 FFF7FEFF 		bl	USBD_LL_SOF
 322              	.LVL25:
 164:USB_DEVICE/Target/usbd_conf.c **** 
 323              		.loc 1 164 1 view .LVU55
 324 000a 08BD     		pop	{r3, pc}
 325              		.cfi_endproc
 326              	.LFE131:
 328              		.section	.text.HAL_PCD_ResetCallback,"ax",%progbits
 329              		.align	1
 330              		.global	HAL_PCD_ResetCallback
 331              		.syntax unified
ARM GAS  C:\Users\Simio\AppData\Local\Temp\ccX5nZ0t.s 			page 19


 332              		.thumb
 333              		.thumb_func
 335              	HAL_PCD_ResetCallback:
 336              	.LVL26:
 337              	.LFB132:
 176:USB_DEVICE/Target/usbd_conf.c ****   USBD_SpeedTypeDef speed = USBD_SPEED_FULL;
 338              		.loc 1 176 1 is_stmt 1 view -0
 339              		.cfi_startproc
 340              		@ args = 0, pretend = 0, frame = 0
 341              		@ frame_needed = 0, uses_anonymous_args = 0
 176:USB_DEVICE/Target/usbd_conf.c ****   USBD_SpeedTypeDef speed = USBD_SPEED_FULL;
 342              		.loc 1 176 1 is_stmt 0 view .LVU57
 343 0000 10B5     		push	{r4, lr}
 344              	.LCFI8:
 345              		.cfi_def_cfa_offset 8
 346              		.cfi_offset 4, -8
 347              		.cfi_offset 14, -4
 348 0002 0446     		mov	r4, r0
 177:USB_DEVICE/Target/usbd_conf.c **** 
 349              		.loc 1 177 3 is_stmt 1 view .LVU58
 350              	.LVL27:
 179:USB_DEVICE/Target/usbd_conf.c ****   {
 351              		.loc 1 179 3 view .LVU59
 179:USB_DEVICE/Target/usbd_conf.c ****   {
 352              		.loc 1 179 18 is_stmt 0 view .LVU60
 353 0004 8368     		ldr	r3, [r0, #8]
 179:USB_DEVICE/Target/usbd_conf.c ****   {
 354              		.loc 1 179 6 view .LVU61
 355 0006 022B     		cmp	r3, #2
 356 0008 09D1     		bne	.L33
 357              	.LVL28:
 358              	.L31:
 184:USB_DEVICE/Target/usbd_conf.c **** 
 359              		.loc 1 184 3 is_stmt 1 view .LVU62
 360 000a 0121     		movs	r1, #1
 361 000c D4F8E802 		ldr	r0, [r4, #744]
 362 0010 FFF7FEFF 		bl	USBD_LL_SetSpeed
 363              	.LVL29:
 187:USB_DEVICE/Target/usbd_conf.c **** }
 364              		.loc 1 187 3 view .LVU63
 365 0014 D4F8E802 		ldr	r0, [r4, #744]
 366 0018 FFF7FEFF 		bl	USBD_LL_Reset
 367              	.LVL30:
 188:USB_DEVICE/Target/usbd_conf.c **** 
 368              		.loc 1 188 1 is_stmt 0 view .LVU64
 369 001c 10BD     		pop	{r4, pc}
 370              	.LVL31:
 371              	.L33:
 181:USB_DEVICE/Target/usbd_conf.c ****   }
 372              		.loc 1 181 5 is_stmt 1 view .LVU65
 373 001e FFF7FEFF 		bl	Error_Handler
 374              	.LVL32:
 181:USB_DEVICE/Target/usbd_conf.c ****   }
 375              		.loc 1 181 5 is_stmt 0 view .LVU66
 376 0022 F2E7     		b	.L31
 377              		.cfi_endproc
 378              	.LFE132:
ARM GAS  C:\Users\Simio\AppData\Local\Temp\ccX5nZ0t.s 			page 20


 380              		.section	.text.HAL_PCD_SuspendCallback,"ax",%progbits
 381              		.align	1
 382              		.global	HAL_PCD_SuspendCallback
 383              		.syntax unified
 384              		.thumb
 385              		.thumb_func
 387              	HAL_PCD_SuspendCallback:
 388              	.LVL33:
 389              	.LFB133:
 201:USB_DEVICE/Target/usbd_conf.c ****   /* Inform USB library that core enters in suspend Mode. */
 390              		.loc 1 201 1 is_stmt 1 view -0
 391              		.cfi_startproc
 392              		@ args = 0, pretend = 0, frame = 0
 393              		@ frame_needed = 0, uses_anonymous_args = 0
 201:USB_DEVICE/Target/usbd_conf.c ****   /* Inform USB library that core enters in suspend Mode. */
 394              		.loc 1 201 1 is_stmt 0 view .LVU68
 395 0000 10B5     		push	{r4, lr}
 396              	.LCFI9:
 397              		.cfi_def_cfa_offset 8
 398              		.cfi_offset 4, -8
 399              		.cfi_offset 14, -4
 400 0002 0446     		mov	r4, r0
 203:USB_DEVICE/Target/usbd_conf.c ****   /* Enter in STOP mode. */
 401              		.loc 1 203 3 is_stmt 1 view .LVU69
 402 0004 D0F8E802 		ldr	r0, [r0, #744]
 403              	.LVL34:
 203:USB_DEVICE/Target/usbd_conf.c ****   /* Enter in STOP mode. */
 404              		.loc 1 203 3 is_stmt 0 view .LVU70
 405 0008 FFF7FEFF 		bl	USBD_LL_Suspend
 406              	.LVL35:
 206:USB_DEVICE/Target/usbd_conf.c ****   {
 407              		.loc 1 206 3 is_stmt 1 view .LVU71
 206:USB_DEVICE/Target/usbd_conf.c ****   {
 408              		.loc 1 206 17 is_stmt 0 view .LVU72
 409 000c A369     		ldr	r3, [r4, #24]
 206:USB_DEVICE/Target/usbd_conf.c ****   {
 410              		.loc 1 206 6 view .LVU73
 411 000e 23B1     		cbz	r3, .L34
 209:USB_DEVICE/Target/usbd_conf.c ****   }
 412              		.loc 1 209 5 is_stmt 1 view .LVU74
 209:USB_DEVICE/Target/usbd_conf.c ****   }
 413              		.loc 1 209 8 is_stmt 0 view .LVU75
 414 0010 024A     		ldr	r2, .L37
 415 0012 1369     		ldr	r3, [r2, #16]
 209:USB_DEVICE/Target/usbd_conf.c ****   }
 416              		.loc 1 209 14 view .LVU76
 417 0014 43F00603 		orr	r3, r3, #6
 418 0018 1361     		str	r3, [r2, #16]
 419              	.L34:
 212:USB_DEVICE/Target/usbd_conf.c **** 
 420              		.loc 1 212 1 view .LVU77
 421 001a 10BD     		pop	{r4, pc}
 422              	.LVL36:
 423              	.L38:
 212:USB_DEVICE/Target/usbd_conf.c **** 
 424              		.loc 1 212 1 view .LVU78
 425              		.align	2
ARM GAS  C:\Users\Simio\AppData\Local\Temp\ccX5nZ0t.s 			page 21


 426              	.L37:
 427 001c 00ED00E0 		.word	-536810240
 428              		.cfi_endproc
 429              	.LFE133:
 431              		.section	.text.HAL_PCD_ResumeCallback,"ax",%progbits
 432              		.align	1
 433              		.global	HAL_PCD_ResumeCallback
 434              		.syntax unified
 435              		.thumb
 436              		.thumb_func
 438              	HAL_PCD_ResumeCallback:
 439              	.LVL37:
 440              	.LFB134:
 225:USB_DEVICE/Target/usbd_conf.c ****   /* USER CODE BEGIN 3 */
 441              		.loc 1 225 1 is_stmt 1 view -0
 442              		.cfi_startproc
 443              		@ args = 0, pretend = 0, frame = 0
 444              		@ frame_needed = 0, uses_anonymous_args = 0
 225:USB_DEVICE/Target/usbd_conf.c ****   /* USER CODE BEGIN 3 */
 445              		.loc 1 225 1 is_stmt 0 view .LVU80
 446 0000 08B5     		push	{r3, lr}
 447              	.LCFI10:
 448              		.cfi_def_cfa_offset 8
 449              		.cfi_offset 3, -8
 450              		.cfi_offset 14, -4
 229:USB_DEVICE/Target/usbd_conf.c **** }
 451              		.loc 1 229 3 is_stmt 1 view .LVU81
 452 0002 D0F8E802 		ldr	r0, [r0, #744]
 453              	.LVL38:
 229:USB_DEVICE/Target/usbd_conf.c **** }
 454              		.loc 1 229 3 is_stmt 0 view .LVU82
 455 0006 FFF7FEFF 		bl	USBD_LL_Resume
 456              	.LVL39:
 230:USB_DEVICE/Target/usbd_conf.c **** 
 457              		.loc 1 230 1 view .LVU83
 458 000a 08BD     		pop	{r3, pc}
 459              		.cfi_endproc
 460              	.LFE134:
 462              		.section	.text.HAL_PCD_ISOOUTIncompleteCallback,"ax",%progbits
 463              		.align	1
 464              		.global	HAL_PCD_ISOOUTIncompleteCallback
 465              		.syntax unified
 466              		.thumb
 467              		.thumb_func
 469              	HAL_PCD_ISOOUTIncompleteCallback:
 470              	.LVL40:
 471              	.LFB135:
 243:USB_DEVICE/Target/usbd_conf.c ****   USBD_LL_IsoOUTIncomplete((USBD_HandleTypeDef*)hpcd->pData, epnum);
 472              		.loc 1 243 1 is_stmt 1 view -0
 473              		.cfi_startproc
 474              		@ args = 0, pretend = 0, frame = 0
 475              		@ frame_needed = 0, uses_anonymous_args = 0
 243:USB_DEVICE/Target/usbd_conf.c ****   USBD_LL_IsoOUTIncomplete((USBD_HandleTypeDef*)hpcd->pData, epnum);
 476              		.loc 1 243 1 is_stmt 0 view .LVU85
 477 0000 08B5     		push	{r3, lr}
 478              	.LCFI11:
 479              		.cfi_def_cfa_offset 8
ARM GAS  C:\Users\Simio\AppData\Local\Temp\ccX5nZ0t.s 			page 22


 480              		.cfi_offset 3, -8
 481              		.cfi_offset 14, -4
 244:USB_DEVICE/Target/usbd_conf.c **** }
 482              		.loc 1 244 3 is_stmt 1 view .LVU86
 483 0002 D0F8E802 		ldr	r0, [r0, #744]
 484              	.LVL41:
 244:USB_DEVICE/Target/usbd_conf.c **** }
 485              		.loc 1 244 3 is_stmt 0 view .LVU87
 486 0006 FFF7FEFF 		bl	USBD_LL_IsoOUTIncomplete
 487              	.LVL42:
 245:USB_DEVICE/Target/usbd_conf.c **** 
 488              		.loc 1 245 1 view .LVU88
 489 000a 08BD     		pop	{r3, pc}
 490              		.cfi_endproc
 491              	.LFE135:
 493              		.section	.text.HAL_PCD_ISOINIncompleteCallback,"ax",%progbits
 494              		.align	1
 495              		.global	HAL_PCD_ISOINIncompleteCallback
 496              		.syntax unified
 497              		.thumb
 498              		.thumb_func
 500              	HAL_PCD_ISOINIncompleteCallback:
 501              	.LVL43:
 502              	.LFB136:
 258:USB_DEVICE/Target/usbd_conf.c ****   USBD_LL_IsoINIncomplete((USBD_HandleTypeDef*)hpcd->pData, epnum);
 503              		.loc 1 258 1 is_stmt 1 view -0
 504              		.cfi_startproc
 505              		@ args = 0, pretend = 0, frame = 0
 506              		@ frame_needed = 0, uses_anonymous_args = 0
 258:USB_DEVICE/Target/usbd_conf.c ****   USBD_LL_IsoINIncomplete((USBD_HandleTypeDef*)hpcd->pData, epnum);
 507              		.loc 1 258 1 is_stmt 0 view .LVU90
 508 0000 08B5     		push	{r3, lr}
 509              	.LCFI12:
 510              		.cfi_def_cfa_offset 8
 511              		.cfi_offset 3, -8
 512              		.cfi_offset 14, -4
 259:USB_DEVICE/Target/usbd_conf.c **** }
 513              		.loc 1 259 3 is_stmt 1 view .LVU91
 514 0002 D0F8E802 		ldr	r0, [r0, #744]
 515              	.LVL44:
 259:USB_DEVICE/Target/usbd_conf.c **** }
 516              		.loc 1 259 3 is_stmt 0 view .LVU92
 517 0006 FFF7FEFF 		bl	USBD_LL_IsoINIncomplete
 518              	.LVL45:
 260:USB_DEVICE/Target/usbd_conf.c **** 
 519              		.loc 1 260 1 view .LVU93
 520 000a 08BD     		pop	{r3, pc}
 521              		.cfi_endproc
 522              	.LFE136:
 524              		.section	.text.HAL_PCD_ConnectCallback,"ax",%progbits
 525              		.align	1
 526              		.global	HAL_PCD_ConnectCallback
 527              		.syntax unified
 528              		.thumb
 529              		.thumb_func
 531              	HAL_PCD_ConnectCallback:
 532              	.LVL46:
ARM GAS  C:\Users\Simio\AppData\Local\Temp\ccX5nZ0t.s 			page 23


 533              	.LFB137:
 272:USB_DEVICE/Target/usbd_conf.c ****   USBD_LL_DevConnected((USBD_HandleTypeDef*)hpcd->pData);
 534              		.loc 1 272 1 is_stmt 1 view -0
 535              		.cfi_startproc
 536              		@ args = 0, pretend = 0, frame = 0
 537              		@ frame_needed = 0, uses_anonymous_args = 0
 272:USB_DEVICE/Target/usbd_conf.c ****   USBD_LL_DevConnected((USBD_HandleTypeDef*)hpcd->pData);
 538              		.loc 1 272 1 is_stmt 0 view .LVU95
 539 0000 08B5     		push	{r3, lr}
 540              	.LCFI13:
 541              		.cfi_def_cfa_offset 8
 542              		.cfi_offset 3, -8
 543              		.cfi_offset 14, -4
 273:USB_DEVICE/Target/usbd_conf.c **** }
 544              		.loc 1 273 3 is_stmt 1 view .LVU96
 545 0002 D0F8E802 		ldr	r0, [r0, #744]
 546              	.LVL47:
 273:USB_DEVICE/Target/usbd_conf.c **** }
 547              		.loc 1 273 3 is_stmt 0 view .LVU97
 548 0006 FFF7FEFF 		bl	USBD_LL_DevConnected
 549              	.LVL48:
 274:USB_DEVICE/Target/usbd_conf.c **** 
 550              		.loc 1 274 1 view .LVU98
 551 000a 08BD     		pop	{r3, pc}
 552              		.cfi_endproc
 553              	.LFE137:
 555              		.section	.text.HAL_PCD_DisconnectCallback,"ax",%progbits
 556              		.align	1
 557              		.global	HAL_PCD_DisconnectCallback
 558              		.syntax unified
 559              		.thumb
 560              		.thumb_func
 562              	HAL_PCD_DisconnectCallback:
 563              	.LVL49:
 564              	.LFB138:
 286:USB_DEVICE/Target/usbd_conf.c ****   USBD_LL_DevDisconnected((USBD_HandleTypeDef*)hpcd->pData);
 565              		.loc 1 286 1 is_stmt 1 view -0
 566              		.cfi_startproc
 567              		@ args = 0, pretend = 0, frame = 0
 568              		@ frame_needed = 0, uses_anonymous_args = 0
 286:USB_DEVICE/Target/usbd_conf.c ****   USBD_LL_DevDisconnected((USBD_HandleTypeDef*)hpcd->pData);
 569              		.loc 1 286 1 is_stmt 0 view .LVU100
 570 0000 08B5     		push	{r3, lr}
 571              	.LCFI14:
 572              		.cfi_def_cfa_offset 8
 573              		.cfi_offset 3, -8
 574              		.cfi_offset 14, -4
 287:USB_DEVICE/Target/usbd_conf.c **** }
 575              		.loc 1 287 3 is_stmt 1 view .LVU101
 576 0002 D0F8E802 		ldr	r0, [r0, #744]
 577              	.LVL50:
 287:USB_DEVICE/Target/usbd_conf.c **** }
 578              		.loc 1 287 3 is_stmt 0 view .LVU102
 579 0006 FFF7FEFF 		bl	USBD_LL_DevDisconnected
 580              	.LVL51:
 288:USB_DEVICE/Target/usbd_conf.c **** 
 581              		.loc 1 288 1 view .LVU103
ARM GAS  C:\Users\Simio\AppData\Local\Temp\ccX5nZ0t.s 			page 24


 582 000a 08BD     		pop	{r3, pc}
 583              		.cfi_endproc
 584              	.LFE138:
 586              		.section	.text.USBD_LL_Init,"ax",%progbits
 587              		.align	1
 588              		.global	USBD_LL_Init
 589              		.syntax unified
 590              		.thumb
 591              		.thumb_func
 593              	USBD_LL_Init:
 594              	.LVL52:
 595              	.LFB139:
 300:USB_DEVICE/Target/usbd_conf.c ****   /* Init USB Ip. */
 596              		.loc 1 300 1 is_stmt 1 view -0
 597              		.cfi_startproc
 598              		@ args = 0, pretend = 0, frame = 0
 599              		@ frame_needed = 0, uses_anonymous_args = 0
 300:USB_DEVICE/Target/usbd_conf.c ****   /* Init USB Ip. */
 600              		.loc 1 300 1 is_stmt 0 view .LVU105
 601 0000 10B5     		push	{r4, lr}
 602              	.LCFI15:
 603              		.cfi_def_cfa_offset 8
 604              		.cfi_offset 4, -8
 605              		.cfi_offset 14, -4
 606 0002 0446     		mov	r4, r0
 303:USB_DEVICE/Target/usbd_conf.c ****   pdev->pData = &hpcd_USB_FS;
 607              		.loc 1 303 3 is_stmt 1 view .LVU106
 303:USB_DEVICE/Target/usbd_conf.c ****   pdev->pData = &hpcd_USB_FS;
 608              		.loc 1 303 21 is_stmt 0 view .LVU107
 609 0004 1D48     		ldr	r0, .L53
 610              	.LVL53:
 303:USB_DEVICE/Target/usbd_conf.c ****   pdev->pData = &hpcd_USB_FS;
 611              		.loc 1 303 21 view .LVU108
 612 0006 C0F8E842 		str	r4, [r0, #744]
 304:USB_DEVICE/Target/usbd_conf.c **** 
 613              		.loc 1 304 3 is_stmt 1 view .LVU109
 304:USB_DEVICE/Target/usbd_conf.c **** 
 614              		.loc 1 304 15 is_stmt 0 view .LVU110
 615 000a C4F8C002 		str	r0, [r4, #704]
 306:USB_DEVICE/Target/usbd_conf.c ****   hpcd_USB_FS.Init.dev_endpoints = 8;
 616              		.loc 1 306 3 is_stmt 1 view .LVU111
 306:USB_DEVICE/Target/usbd_conf.c ****   hpcd_USB_FS.Init.dev_endpoints = 8;
 617              		.loc 1 306 24 is_stmt 0 view .LVU112
 618 000e 1C4B     		ldr	r3, .L53+4
 619 0010 0360     		str	r3, [r0]
 307:USB_DEVICE/Target/usbd_conf.c ****   hpcd_USB_FS.Init.speed = PCD_SPEED_FULL;
 620              		.loc 1 307 3 is_stmt 1 view .LVU113
 307:USB_DEVICE/Target/usbd_conf.c ****   hpcd_USB_FS.Init.speed = PCD_SPEED_FULL;
 621              		.loc 1 307 34 is_stmt 0 view .LVU114
 622 0012 0823     		movs	r3, #8
 623 0014 4360     		str	r3, [r0, #4]
 308:USB_DEVICE/Target/usbd_conf.c ****   hpcd_USB_FS.Init.phy_itface = PCD_PHY_EMBEDDED;
 624              		.loc 1 308 3 is_stmt 1 view .LVU115
 308:USB_DEVICE/Target/usbd_conf.c ****   hpcd_USB_FS.Init.phy_itface = PCD_PHY_EMBEDDED;
 625              		.loc 1 308 26 is_stmt 0 view .LVU116
 626 0016 0223     		movs	r3, #2
 627 0018 8360     		str	r3, [r0, #8]
ARM GAS  C:\Users\Simio\AppData\Local\Temp\ccX5nZ0t.s 			page 25


 309:USB_DEVICE/Target/usbd_conf.c ****   hpcd_USB_FS.Init.low_power_enable = DISABLE;
 628              		.loc 1 309 3 is_stmt 1 view .LVU117
 309:USB_DEVICE/Target/usbd_conf.c ****   hpcd_USB_FS.Init.low_power_enable = DISABLE;
 629              		.loc 1 309 31 is_stmt 0 view .LVU118
 630 001a 0361     		str	r3, [r0, #16]
 310:USB_DEVICE/Target/usbd_conf.c ****   hpcd_USB_FS.Init.battery_charging_enable = DISABLE;
 631              		.loc 1 310 3 is_stmt 1 view .LVU119
 310:USB_DEVICE/Target/usbd_conf.c ****   hpcd_USB_FS.Init.battery_charging_enable = DISABLE;
 632              		.loc 1 310 37 is_stmt 0 view .LVU120
 633 001c 0023     		movs	r3, #0
 634 001e 8361     		str	r3, [r0, #24]
 311:USB_DEVICE/Target/usbd_conf.c ****   if (HAL_PCD_Init(&hpcd_USB_FS) != HAL_OK)
 635              		.loc 1 311 3 is_stmt 1 view .LVU121
 311:USB_DEVICE/Target/usbd_conf.c ****   if (HAL_PCD_Init(&hpcd_USB_FS) != HAL_OK)
 636              		.loc 1 311 44 is_stmt 0 view .LVU122
 637 0020 0362     		str	r3, [r0, #32]
 312:USB_DEVICE/Target/usbd_conf.c ****   {
 638              		.loc 1 312 3 is_stmt 1 view .LVU123
 312:USB_DEVICE/Target/usbd_conf.c ****   {
 639              		.loc 1 312 7 is_stmt 0 view .LVU124
 640 0022 FFF7FEFF 		bl	HAL_PCD_Init
 641              	.LVL54:
 312:USB_DEVICE/Target/usbd_conf.c ****   {
 642              		.loc 1 312 6 discriminator 1 view .LVU125
 643 0026 30BB     		cbnz	r0, .L52
 644              	.L50:
 333:USB_DEVICE/Target/usbd_conf.c ****   HAL_PCDEx_PMAConfig((PCD_HandleTypeDef*)pdev->pData , 0x80 , PCD_SNG_BUF, 0x58);
 645              		.loc 1 333 3 is_stmt 1 view .LVU126
 646 0028 1823     		movs	r3, #24
 647 002a 0022     		movs	r2, #0
 648 002c 1146     		mov	r1, r2
 649 002e D4F8C002 		ldr	r0, [r4, #704]
 650 0032 FFF7FEFF 		bl	HAL_PCDEx_PMAConfig
 651              	.LVL55:
 334:USB_DEVICE/Target/usbd_conf.c ****   /* USER CODE END EndPoint_Configuration */
 652              		.loc 1 334 3 view .LVU127
 653 0036 5823     		movs	r3, #88
 654 0038 0022     		movs	r2, #0
 655 003a 8021     		movs	r1, #128
 656 003c D4F8C002 		ldr	r0, [r4, #704]
 657 0040 FFF7FEFF 		bl	HAL_PCDEx_PMAConfig
 658              	.LVL56:
 337:USB_DEVICE/Target/usbd_conf.c ****   HAL_PCDEx_PMAConfig((PCD_HandleTypeDef*)pdev->pData , 0x01 , PCD_SNG_BUF, 0x110);
 659              		.loc 1 337 3 view .LVU128
 660 0044 C023     		movs	r3, #192
 661 0046 0022     		movs	r2, #0
 662 0048 8121     		movs	r1, #129
 663 004a D4F8C002 		ldr	r0, [r4, #704]
 664 004e FFF7FEFF 		bl	HAL_PCDEx_PMAConfig
 665              	.LVL57:
 338:USB_DEVICE/Target/usbd_conf.c ****   HAL_PCDEx_PMAConfig((PCD_HandleTypeDef*)pdev->pData , 0x82 , PCD_SNG_BUF, 0x100);
 666              		.loc 1 338 3 view .LVU129
 667 0052 4FF48873 		mov	r3, #272
 668 0056 0022     		movs	r2, #0
 669 0058 0121     		movs	r1, #1
 670 005a D4F8C002 		ldr	r0, [r4, #704]
 671 005e FFF7FEFF 		bl	HAL_PCDEx_PMAConfig
ARM GAS  C:\Users\Simio\AppData\Local\Temp\ccX5nZ0t.s 			page 26


 672              	.LVL58:
 339:USB_DEVICE/Target/usbd_conf.c ****   /* USER CODE END EndPoint_Configuration_CDC */
 673              		.loc 1 339 3 view .LVU130
 674 0062 4FF48073 		mov	r3, #256
 675 0066 0022     		movs	r2, #0
 676 0068 8221     		movs	r1, #130
 677 006a D4F8C002 		ldr	r0, [r4, #704]
 678 006e FFF7FEFF 		bl	HAL_PCDEx_PMAConfig
 679              	.LVL59:
 341:USB_DEVICE/Target/usbd_conf.c **** }
 680              		.loc 1 341 3 view .LVU131
 342:USB_DEVICE/Target/usbd_conf.c **** 
 681              		.loc 1 342 1 is_stmt 0 view .LVU132
 682 0072 0020     		movs	r0, #0
 683 0074 10BD     		pop	{r4, pc}
 684              	.LVL60:
 685              	.L52:
 314:USB_DEVICE/Target/usbd_conf.c ****   }
 686              		.loc 1 314 5 is_stmt 1 view .LVU133
 687 0076 FFF7FEFF 		bl	Error_Handler
 688              	.LVL61:
 689 007a D5E7     		b	.L50
 690              	.L54:
 691              		.align	2
 692              	.L53:
 693 007c 00000000 		.word	hpcd_USB_FS
 694 0080 005C0040 		.word	1073765376
 695              		.cfi_endproc
 696              	.LFE139:
 698              		.section	.text.USBD_LL_DeInit,"ax",%progbits
 699              		.align	1
 700              		.global	USBD_LL_DeInit
 701              		.syntax unified
 702              		.thumb
 703              		.thumb_func
 705              	USBD_LL_DeInit:
 706              	.LVL62:
 707              	.LFB140:
 350:USB_DEVICE/Target/usbd_conf.c ****   HAL_StatusTypeDef hal_status = HAL_OK;
 708              		.loc 1 350 1 view -0
 709              		.cfi_startproc
 710              		@ args = 0, pretend = 0, frame = 0
 711              		@ frame_needed = 0, uses_anonymous_args = 0
 350:USB_DEVICE/Target/usbd_conf.c ****   HAL_StatusTypeDef hal_status = HAL_OK;
 712              		.loc 1 350 1 is_stmt 0 view .LVU135
 713 0000 08B5     		push	{r3, lr}
 714              	.LCFI16:
 715              		.cfi_def_cfa_offset 8
 716              		.cfi_offset 3, -8
 717              		.cfi_offset 14, -4
 351:USB_DEVICE/Target/usbd_conf.c ****   USBD_StatusTypeDef usb_status = USBD_OK;
 718              		.loc 1 351 3 is_stmt 1 view .LVU136
 719              	.LVL63:
 352:USB_DEVICE/Target/usbd_conf.c **** 
 720              		.loc 1 352 3 view .LVU137
 354:USB_DEVICE/Target/usbd_conf.c **** 
 721              		.loc 1 354 3 view .LVU138
ARM GAS  C:\Users\Simio\AppData\Local\Temp\ccX5nZ0t.s 			page 27


 354:USB_DEVICE/Target/usbd_conf.c **** 
 722              		.loc 1 354 16 is_stmt 0 view .LVU139
 723 0002 D0F8C002 		ldr	r0, [r0, #704]
 724              	.LVL64:
 354:USB_DEVICE/Target/usbd_conf.c **** 
 725              		.loc 1 354 16 view .LVU140
 726 0006 FFF7FEFF 		bl	HAL_PCD_DeInit
 727              	.LVL65:
 356:USB_DEVICE/Target/usbd_conf.c **** 
 728              		.loc 1 356 3 is_stmt 1 view .LVU141
 356:USB_DEVICE/Target/usbd_conf.c **** 
 729              		.loc 1 356 17 is_stmt 0 view .LVU142
 730 000a FFF7FEFF 		bl	USBD_Get_USB_Status
 731              	.LVL66:
 358:USB_DEVICE/Target/usbd_conf.c **** }
 732              		.loc 1 358 3 is_stmt 1 view .LVU143
 359:USB_DEVICE/Target/usbd_conf.c **** 
 733              		.loc 1 359 1 is_stmt 0 view .LVU144
 734 000e 08BD     		pop	{r3, pc}
 735              		.cfi_endproc
 736              	.LFE140:
 738              		.section	.text.USBD_LL_Start,"ax",%progbits
 739              		.align	1
 740              		.global	USBD_LL_Start
 741              		.syntax unified
 742              		.thumb
 743              		.thumb_func
 745              	USBD_LL_Start:
 746              	.LVL67:
 747              	.LFB141:
 367:USB_DEVICE/Target/usbd_conf.c ****   HAL_StatusTypeDef hal_status = HAL_OK;
 748              		.loc 1 367 1 is_stmt 1 view -0
 749              		.cfi_startproc
 750              		@ args = 0, pretend = 0, frame = 0
 751              		@ frame_needed = 0, uses_anonymous_args = 0
 367:USB_DEVICE/Target/usbd_conf.c ****   HAL_StatusTypeDef hal_status = HAL_OK;
 752              		.loc 1 367 1 is_stmt 0 view .LVU146
 753 0000 08B5     		push	{r3, lr}
 754              	.LCFI17:
 755              		.cfi_def_cfa_offset 8
 756              		.cfi_offset 3, -8
 757              		.cfi_offset 14, -4
 368:USB_DEVICE/Target/usbd_conf.c ****   USBD_StatusTypeDef usb_status = USBD_OK;
 758              		.loc 1 368 3 is_stmt 1 view .LVU147
 759              	.LVL68:
 369:USB_DEVICE/Target/usbd_conf.c **** 
 760              		.loc 1 369 3 view .LVU148
 371:USB_DEVICE/Target/usbd_conf.c **** 
 761              		.loc 1 371 3 view .LVU149
 371:USB_DEVICE/Target/usbd_conf.c **** 
 762              		.loc 1 371 16 is_stmt 0 view .LVU150
 763 0002 D0F8C002 		ldr	r0, [r0, #704]
 764              	.LVL69:
 371:USB_DEVICE/Target/usbd_conf.c **** 
 765              		.loc 1 371 16 view .LVU151
 766 0006 FFF7FEFF 		bl	HAL_PCD_Start
 767              	.LVL70:
ARM GAS  C:\Users\Simio\AppData\Local\Temp\ccX5nZ0t.s 			page 28


 373:USB_DEVICE/Target/usbd_conf.c **** 
 768              		.loc 1 373 3 is_stmt 1 view .LVU152
 373:USB_DEVICE/Target/usbd_conf.c **** 
 769              		.loc 1 373 17 is_stmt 0 view .LVU153
 770 000a FFF7FEFF 		bl	USBD_Get_USB_Status
 771              	.LVL71:
 375:USB_DEVICE/Target/usbd_conf.c **** }
 772              		.loc 1 375 3 is_stmt 1 view .LVU154
 376:USB_DEVICE/Target/usbd_conf.c **** 
 773              		.loc 1 376 1 is_stmt 0 view .LVU155
 774 000e 08BD     		pop	{r3, pc}
 775              		.cfi_endproc
 776              	.LFE141:
 778              		.section	.text.USBD_LL_Stop,"ax",%progbits
 779              		.align	1
 780              		.global	USBD_LL_Stop
 781              		.syntax unified
 782              		.thumb
 783              		.thumb_func
 785              	USBD_LL_Stop:
 786              	.LVL72:
 787              	.LFB142:
 384:USB_DEVICE/Target/usbd_conf.c ****   HAL_StatusTypeDef hal_status = HAL_OK;
 788              		.loc 1 384 1 is_stmt 1 view -0
 789              		.cfi_startproc
 790              		@ args = 0, pretend = 0, frame = 0
 791              		@ frame_needed = 0, uses_anonymous_args = 0
 384:USB_DEVICE/Target/usbd_conf.c ****   HAL_StatusTypeDef hal_status = HAL_OK;
 792              		.loc 1 384 1 is_stmt 0 view .LVU157
 793 0000 08B5     		push	{r3, lr}
 794              	.LCFI18:
 795              		.cfi_def_cfa_offset 8
 796              		.cfi_offset 3, -8
 797              		.cfi_offset 14, -4
 385:USB_DEVICE/Target/usbd_conf.c ****   USBD_StatusTypeDef usb_status = USBD_OK;
 798              		.loc 1 385 3 is_stmt 1 view .LVU158
 799              	.LVL73:
 386:USB_DEVICE/Target/usbd_conf.c **** 
 800              		.loc 1 386 3 view .LVU159
 388:USB_DEVICE/Target/usbd_conf.c **** 
 801              		.loc 1 388 3 view .LVU160
 388:USB_DEVICE/Target/usbd_conf.c **** 
 802              		.loc 1 388 16 is_stmt 0 view .LVU161
 803 0002 D0F8C002 		ldr	r0, [r0, #704]
 804              	.LVL74:
 388:USB_DEVICE/Target/usbd_conf.c **** 
 805              		.loc 1 388 16 view .LVU162
 806 0006 FFF7FEFF 		bl	HAL_PCD_Stop
 807              	.LVL75:
 390:USB_DEVICE/Target/usbd_conf.c **** 
 808              		.loc 1 390 3 is_stmt 1 view .LVU163
 390:USB_DEVICE/Target/usbd_conf.c **** 
 809              		.loc 1 390 17 is_stmt 0 view .LVU164
 810 000a FFF7FEFF 		bl	USBD_Get_USB_Status
 811              	.LVL76:
 392:USB_DEVICE/Target/usbd_conf.c **** }
 812              		.loc 1 392 3 is_stmt 1 view .LVU165
ARM GAS  C:\Users\Simio\AppData\Local\Temp\ccX5nZ0t.s 			page 29


 393:USB_DEVICE/Target/usbd_conf.c **** 
 813              		.loc 1 393 1 is_stmt 0 view .LVU166
 814 000e 08BD     		pop	{r3, pc}
 815              		.cfi_endproc
 816              	.LFE142:
 818              		.section	.text.USBD_LL_OpenEP,"ax",%progbits
 819              		.align	1
 820              		.global	USBD_LL_OpenEP
 821              		.syntax unified
 822              		.thumb
 823              		.thumb_func
 825              	USBD_LL_OpenEP:
 826              	.LVL77:
 827              	.LFB143:
 404:USB_DEVICE/Target/usbd_conf.c ****   HAL_StatusTypeDef hal_status = HAL_OK;
 828              		.loc 1 404 1 is_stmt 1 view -0
 829              		.cfi_startproc
 830              		@ args = 0, pretend = 0, frame = 0
 831              		@ frame_needed = 0, uses_anonymous_args = 0
 404:USB_DEVICE/Target/usbd_conf.c ****   HAL_StatusTypeDef hal_status = HAL_OK;
 832              		.loc 1 404 1 is_stmt 0 view .LVU168
 833 0000 08B5     		push	{r3, lr}
 834              	.LCFI19:
 835              		.cfi_def_cfa_offset 8
 836              		.cfi_offset 3, -8
 837              		.cfi_offset 14, -4
 838 0002 9446     		mov	ip, r2
 839 0004 1A46     		mov	r2, r3
 840              	.LVL78:
 405:USB_DEVICE/Target/usbd_conf.c ****   USBD_StatusTypeDef usb_status = USBD_OK;
 841              		.loc 1 405 3 is_stmt 1 view .LVU169
 406:USB_DEVICE/Target/usbd_conf.c **** 
 842              		.loc 1 406 3 view .LVU170
 408:USB_DEVICE/Target/usbd_conf.c **** 
 843              		.loc 1 408 3 view .LVU171
 408:USB_DEVICE/Target/usbd_conf.c **** 
 844              		.loc 1 408 16 is_stmt 0 view .LVU172
 845 0006 6346     		mov	r3, ip
 846              	.LVL79:
 408:USB_DEVICE/Target/usbd_conf.c **** 
 847              		.loc 1 408 16 view .LVU173
 848 0008 D0F8C002 		ldr	r0, [r0, #704]
 849              	.LVL80:
 408:USB_DEVICE/Target/usbd_conf.c **** 
 850              		.loc 1 408 16 view .LVU174
 851 000c FFF7FEFF 		bl	HAL_PCD_EP_Open
 852              	.LVL81:
 410:USB_DEVICE/Target/usbd_conf.c **** 
 853              		.loc 1 410 3 is_stmt 1 view .LVU175
 410:USB_DEVICE/Target/usbd_conf.c **** 
 854              		.loc 1 410 17 is_stmt 0 view .LVU176
 855 0010 FFF7FEFF 		bl	USBD_Get_USB_Status
 856              	.LVL82:
 412:USB_DEVICE/Target/usbd_conf.c **** }
 857              		.loc 1 412 3 is_stmt 1 view .LVU177
 413:USB_DEVICE/Target/usbd_conf.c **** 
 858              		.loc 1 413 1 is_stmt 0 view .LVU178
ARM GAS  C:\Users\Simio\AppData\Local\Temp\ccX5nZ0t.s 			page 30


 859 0014 08BD     		pop	{r3, pc}
 860              		.cfi_endproc
 861              	.LFE143:
 863              		.section	.text.USBD_LL_CloseEP,"ax",%progbits
 864              		.align	1
 865              		.global	USBD_LL_CloseEP
 866              		.syntax unified
 867              		.thumb
 868              		.thumb_func
 870              	USBD_LL_CloseEP:
 871              	.LVL83:
 872              	.LFB144:
 422:USB_DEVICE/Target/usbd_conf.c ****   HAL_StatusTypeDef hal_status = HAL_OK;
 873              		.loc 1 422 1 is_stmt 1 view -0
 874              		.cfi_startproc
 875              		@ args = 0, pretend = 0, frame = 0
 876              		@ frame_needed = 0, uses_anonymous_args = 0
 422:USB_DEVICE/Target/usbd_conf.c ****   HAL_StatusTypeDef hal_status = HAL_OK;
 877              		.loc 1 422 1 is_stmt 0 view .LVU180
 878 0000 08B5     		push	{r3, lr}
 879              	.LCFI20:
 880              		.cfi_def_cfa_offset 8
 881              		.cfi_offset 3, -8
 882              		.cfi_offset 14, -4
 423:USB_DEVICE/Target/usbd_conf.c ****   USBD_StatusTypeDef usb_status = USBD_OK;
 883              		.loc 1 423 3 is_stmt 1 view .LVU181
 884              	.LVL84:
 424:USB_DEVICE/Target/usbd_conf.c **** 
 885              		.loc 1 424 3 view .LVU182
 426:USB_DEVICE/Target/usbd_conf.c **** 
 886              		.loc 1 426 3 view .LVU183
 426:USB_DEVICE/Target/usbd_conf.c **** 
 887              		.loc 1 426 16 is_stmt 0 view .LVU184
 888 0002 D0F8C002 		ldr	r0, [r0, #704]
 889              	.LVL85:
 426:USB_DEVICE/Target/usbd_conf.c **** 
 890              		.loc 1 426 16 view .LVU185
 891 0006 FFF7FEFF 		bl	HAL_PCD_EP_Close
 892              	.LVL86:
 428:USB_DEVICE/Target/usbd_conf.c **** 
 893              		.loc 1 428 3 is_stmt 1 view .LVU186
 428:USB_DEVICE/Target/usbd_conf.c **** 
 894              		.loc 1 428 17 is_stmt 0 view .LVU187
 895 000a FFF7FEFF 		bl	USBD_Get_USB_Status
 896              	.LVL87:
 430:USB_DEVICE/Target/usbd_conf.c **** }
 897              		.loc 1 430 3 is_stmt 1 view .LVU188
 431:USB_DEVICE/Target/usbd_conf.c **** 
 898              		.loc 1 431 1 is_stmt 0 view .LVU189
 899 000e 08BD     		pop	{r3, pc}
 900              		.cfi_endproc
 901              	.LFE144:
 903              		.section	.text.USBD_LL_FlushEP,"ax",%progbits
 904              		.align	1
 905              		.global	USBD_LL_FlushEP
 906              		.syntax unified
 907              		.thumb
ARM GAS  C:\Users\Simio\AppData\Local\Temp\ccX5nZ0t.s 			page 31


 908              		.thumb_func
 910              	USBD_LL_FlushEP:
 911              	.LVL88:
 912              	.LFB145:
 440:USB_DEVICE/Target/usbd_conf.c ****   HAL_StatusTypeDef hal_status = HAL_OK;
 913              		.loc 1 440 1 is_stmt 1 view -0
 914              		.cfi_startproc
 915              		@ args = 0, pretend = 0, frame = 0
 916              		@ frame_needed = 0, uses_anonymous_args = 0
 440:USB_DEVICE/Target/usbd_conf.c ****   HAL_StatusTypeDef hal_status = HAL_OK;
 917              		.loc 1 440 1 is_stmt 0 view .LVU191
 918 0000 08B5     		push	{r3, lr}
 919              	.LCFI21:
 920              		.cfi_def_cfa_offset 8
 921              		.cfi_offset 3, -8
 922              		.cfi_offset 14, -4
 441:USB_DEVICE/Target/usbd_conf.c ****   USBD_StatusTypeDef usb_status = USBD_OK;
 923              		.loc 1 441 3 is_stmt 1 view .LVU192
 924              	.LVL89:
 442:USB_DEVICE/Target/usbd_conf.c **** 
 925              		.loc 1 442 3 view .LVU193
 444:USB_DEVICE/Target/usbd_conf.c **** 
 926              		.loc 1 444 3 view .LVU194
 444:USB_DEVICE/Target/usbd_conf.c **** 
 927              		.loc 1 444 16 is_stmt 0 view .LVU195
 928 0002 D0F8C002 		ldr	r0, [r0, #704]
 929              	.LVL90:
 444:USB_DEVICE/Target/usbd_conf.c **** 
 930              		.loc 1 444 16 view .LVU196
 931 0006 FFF7FEFF 		bl	HAL_PCD_EP_Flush
 932              	.LVL91:
 446:USB_DEVICE/Target/usbd_conf.c **** 
 933              		.loc 1 446 3 is_stmt 1 view .LVU197
 446:USB_DEVICE/Target/usbd_conf.c **** 
 934              		.loc 1 446 17 is_stmt 0 view .LVU198
 935 000a FFF7FEFF 		bl	USBD_Get_USB_Status
 936              	.LVL92:
 448:USB_DEVICE/Target/usbd_conf.c **** }
 937              		.loc 1 448 3 is_stmt 1 view .LVU199
 449:USB_DEVICE/Target/usbd_conf.c **** 
 938              		.loc 1 449 1 is_stmt 0 view .LVU200
 939 000e 08BD     		pop	{r3, pc}
 940              		.cfi_endproc
 941              	.LFE145:
 943              		.section	.text.USBD_LL_StallEP,"ax",%progbits
 944              		.align	1
 945              		.global	USBD_LL_StallEP
 946              		.syntax unified
 947              		.thumb
 948              		.thumb_func
 950              	USBD_LL_StallEP:
 951              	.LVL93:
 952              	.LFB146:
 458:USB_DEVICE/Target/usbd_conf.c ****   HAL_StatusTypeDef hal_status = HAL_OK;
 953              		.loc 1 458 1 is_stmt 1 view -0
 954              		.cfi_startproc
 955              		@ args = 0, pretend = 0, frame = 0
ARM GAS  C:\Users\Simio\AppData\Local\Temp\ccX5nZ0t.s 			page 32


 956              		@ frame_needed = 0, uses_anonymous_args = 0
 458:USB_DEVICE/Target/usbd_conf.c ****   HAL_StatusTypeDef hal_status = HAL_OK;
 957              		.loc 1 458 1 is_stmt 0 view .LVU202
 958 0000 08B5     		push	{r3, lr}
 959              	.LCFI22:
 960              		.cfi_def_cfa_offset 8
 961              		.cfi_offset 3, -8
 962              		.cfi_offset 14, -4
 459:USB_DEVICE/Target/usbd_conf.c ****   USBD_StatusTypeDef usb_status = USBD_OK;
 963              		.loc 1 459 3 is_stmt 1 view .LVU203
 964              	.LVL94:
 460:USB_DEVICE/Target/usbd_conf.c **** 
 965              		.loc 1 460 3 view .LVU204
 462:USB_DEVICE/Target/usbd_conf.c **** 
 966              		.loc 1 462 3 view .LVU205
 462:USB_DEVICE/Target/usbd_conf.c **** 
 967              		.loc 1 462 16 is_stmt 0 view .LVU206
 968 0002 D0F8C002 		ldr	r0, [r0, #704]
 969              	.LVL95:
 462:USB_DEVICE/Target/usbd_conf.c **** 
 970              		.loc 1 462 16 view .LVU207
 971 0006 FFF7FEFF 		bl	HAL_PCD_EP_SetStall
 972              	.LVL96:
 464:USB_DEVICE/Target/usbd_conf.c **** 
 973              		.loc 1 464 3 is_stmt 1 view .LVU208
 464:USB_DEVICE/Target/usbd_conf.c **** 
 974              		.loc 1 464 17 is_stmt 0 view .LVU209
 975 000a FFF7FEFF 		bl	USBD_Get_USB_Status
 976              	.LVL97:
 466:USB_DEVICE/Target/usbd_conf.c **** }
 977              		.loc 1 466 3 is_stmt 1 view .LVU210
 467:USB_DEVICE/Target/usbd_conf.c **** 
 978              		.loc 1 467 1 is_stmt 0 view .LVU211
 979 000e 08BD     		pop	{r3, pc}
 980              		.cfi_endproc
 981              	.LFE146:
 983              		.section	.text.USBD_LL_ClearStallEP,"ax",%progbits
 984              		.align	1
 985              		.global	USBD_LL_ClearStallEP
 986              		.syntax unified
 987              		.thumb
 988              		.thumb_func
 990              	USBD_LL_ClearStallEP:
 991              	.LVL98:
 992              	.LFB147:
 476:USB_DEVICE/Target/usbd_conf.c ****   HAL_StatusTypeDef hal_status = HAL_OK;
 993              		.loc 1 476 1 is_stmt 1 view -0
 994              		.cfi_startproc
 995              		@ args = 0, pretend = 0, frame = 0
 996              		@ frame_needed = 0, uses_anonymous_args = 0
 476:USB_DEVICE/Target/usbd_conf.c ****   HAL_StatusTypeDef hal_status = HAL_OK;
 997              		.loc 1 476 1 is_stmt 0 view .LVU213
 998 0000 08B5     		push	{r3, lr}
 999              	.LCFI23:
 1000              		.cfi_def_cfa_offset 8
 1001              		.cfi_offset 3, -8
 1002              		.cfi_offset 14, -4
ARM GAS  C:\Users\Simio\AppData\Local\Temp\ccX5nZ0t.s 			page 33


 477:USB_DEVICE/Target/usbd_conf.c ****   USBD_StatusTypeDef usb_status = USBD_OK;
 1003              		.loc 1 477 3 is_stmt 1 view .LVU214
 1004              	.LVL99:
 478:USB_DEVICE/Target/usbd_conf.c **** 
 1005              		.loc 1 478 3 view .LVU215
 480:USB_DEVICE/Target/usbd_conf.c **** 
 1006              		.loc 1 480 3 view .LVU216
 480:USB_DEVICE/Target/usbd_conf.c **** 
 1007              		.loc 1 480 16 is_stmt 0 view .LVU217
 1008 0002 D0F8C002 		ldr	r0, [r0, #704]
 1009              	.LVL100:
 480:USB_DEVICE/Target/usbd_conf.c **** 
 1010              		.loc 1 480 16 view .LVU218
 1011 0006 FFF7FEFF 		bl	HAL_PCD_EP_ClrStall
 1012              	.LVL101:
 482:USB_DEVICE/Target/usbd_conf.c **** 
 1013              		.loc 1 482 3 is_stmt 1 view .LVU219
 482:USB_DEVICE/Target/usbd_conf.c **** 
 1014              		.loc 1 482 17 is_stmt 0 view .LVU220
 1015 000a FFF7FEFF 		bl	USBD_Get_USB_Status
 1016              	.LVL102:
 484:USB_DEVICE/Target/usbd_conf.c **** }
 1017              		.loc 1 484 3 is_stmt 1 view .LVU221
 485:USB_DEVICE/Target/usbd_conf.c **** 
 1018              		.loc 1 485 1 is_stmt 0 view .LVU222
 1019 000e 08BD     		pop	{r3, pc}
 1020              		.cfi_endproc
 1021              	.LFE147:
 1023              		.section	.text.USBD_LL_IsStallEP,"ax",%progbits
 1024              		.align	1
 1025              		.global	USBD_LL_IsStallEP
 1026              		.syntax unified
 1027              		.thumb
 1028              		.thumb_func
 1030              	USBD_LL_IsStallEP:
 1031              	.LVL103:
 1032              	.LFB148:
 494:USB_DEVICE/Target/usbd_conf.c ****   PCD_HandleTypeDef *hpcd = (PCD_HandleTypeDef*) pdev->pData;
 1033              		.loc 1 494 1 is_stmt 1 view -0
 1034              		.cfi_startproc
 1035              		@ args = 0, pretend = 0, frame = 0
 1036              		@ frame_needed = 0, uses_anonymous_args = 0
 1037              		@ link register save eliminated.
 495:USB_DEVICE/Target/usbd_conf.c **** 
 1038              		.loc 1 495 3 view .LVU224
 495:USB_DEVICE/Target/usbd_conf.c **** 
 1039              		.loc 1 495 22 is_stmt 0 view .LVU225
 1040 0000 D0F8C032 		ldr	r3, [r0, #704]
 1041              	.LVL104:
 497:USB_DEVICE/Target/usbd_conf.c ****   {
 1042              		.loc 1 497 3 is_stmt 1 view .LVU226
 497:USB_DEVICE/Target/usbd_conf.c ****   {
 1043              		.loc 1 497 5 is_stmt 0 view .LVU227
 1044 0004 11F0800F 		tst	r1, #128
 1045 0008 08D1     		bne	.L74
 503:USB_DEVICE/Target/usbd_conf.c ****   }
 1046              		.loc 1 503 5 is_stmt 1 view .LVU228
ARM GAS  C:\Users\Simio\AppData\Local\Temp\ccX5nZ0t.s 			page 34


 503:USB_DEVICE/Target/usbd_conf.c ****   }
 1047              		.loc 1 503 33 is_stmt 0 view .LVU229
 1048 000a 01F07F01 		and	r1, r1, #127
 1049              	.LVL105:
 503:USB_DEVICE/Target/usbd_conf.c ****   }
 1050              		.loc 1 503 40 view .LVU230
 1051 000e 01EB8101 		add	r1, r1, r1, lsl #2
 1052 0012 03EBC103 		add	r3, r3, r1, lsl #3
 1053              	.LVL106:
 503:USB_DEVICE/Target/usbd_conf.c ****   }
 1054              		.loc 1 503 40 view .LVU231
 1055 0016 93F86A01 		ldrb	r0, [r3, #362]	@ zero_extendqisi2
 1056              	.LVL107:
 505:USB_DEVICE/Target/usbd_conf.c **** 
 1057              		.loc 1 505 1 view .LVU232
 1058 001a 7047     		bx	lr
 1059              	.LVL108:
 1060              	.L74:
 499:USB_DEVICE/Target/usbd_conf.c ****   }
 1061              		.loc 1 499 5 is_stmt 1 view .LVU233
 499:USB_DEVICE/Target/usbd_conf.c ****   }
 1062              		.loc 1 499 32 is_stmt 0 view .LVU234
 1063 001c 01F07F01 		and	r1, r1, #127
 1064              	.LVL109:
 499:USB_DEVICE/Target/usbd_conf.c ****   }
 1065              		.loc 1 499 39 view .LVU235
 1066 0020 0131     		adds	r1, r1, #1
 1067 0022 01EB8101 		add	r1, r1, r1, lsl #2
 1068 0026 03EBC103 		add	r3, r3, r1, lsl #3
 1069              	.LVL110:
 499:USB_DEVICE/Target/usbd_conf.c ****   }
 1070              		.loc 1 499 39 view .LVU236
 1071 002a 9878     		ldrb	r0, [r3, #2]	@ zero_extendqisi2
 1072              	.LVL111:
 499:USB_DEVICE/Target/usbd_conf.c ****   }
 1073              		.loc 1 499 39 view .LVU237
 1074 002c 7047     		bx	lr
 1075              		.cfi_endproc
 1076              	.LFE148:
 1078              		.section	.text.USBD_LL_SetUSBAddress,"ax",%progbits
 1079              		.align	1
 1080              		.global	USBD_LL_SetUSBAddress
 1081              		.syntax unified
 1082              		.thumb
 1083              		.thumb_func
 1085              	USBD_LL_SetUSBAddress:
 1086              	.LVL112:
 1087              	.LFB149:
 514:USB_DEVICE/Target/usbd_conf.c ****   HAL_StatusTypeDef hal_status = HAL_OK;
 1088              		.loc 1 514 1 is_stmt 1 view -0
 1089              		.cfi_startproc
 1090              		@ args = 0, pretend = 0, frame = 0
 1091              		@ frame_needed = 0, uses_anonymous_args = 0
 514:USB_DEVICE/Target/usbd_conf.c ****   HAL_StatusTypeDef hal_status = HAL_OK;
 1092              		.loc 1 514 1 is_stmt 0 view .LVU239
 1093 0000 08B5     		push	{r3, lr}
 1094              	.LCFI24:
ARM GAS  C:\Users\Simio\AppData\Local\Temp\ccX5nZ0t.s 			page 35


 1095              		.cfi_def_cfa_offset 8
 1096              		.cfi_offset 3, -8
 1097              		.cfi_offset 14, -4
 515:USB_DEVICE/Target/usbd_conf.c ****   USBD_StatusTypeDef usb_status = USBD_OK;
 1098              		.loc 1 515 3 is_stmt 1 view .LVU240
 1099              	.LVL113:
 516:USB_DEVICE/Target/usbd_conf.c **** 
 1100              		.loc 1 516 3 view .LVU241
 518:USB_DEVICE/Target/usbd_conf.c **** 
 1101              		.loc 1 518 3 view .LVU242
 518:USB_DEVICE/Target/usbd_conf.c **** 
 1102              		.loc 1 518 16 is_stmt 0 view .LVU243
 1103 0002 D0F8C002 		ldr	r0, [r0, #704]
 1104              	.LVL114:
 518:USB_DEVICE/Target/usbd_conf.c **** 
 1105              		.loc 1 518 16 view .LVU244
 1106 0006 FFF7FEFF 		bl	HAL_PCD_SetAddress
 1107              	.LVL115:
 520:USB_DEVICE/Target/usbd_conf.c **** 
 1108              		.loc 1 520 3 is_stmt 1 view .LVU245
 520:USB_DEVICE/Target/usbd_conf.c **** 
 1109              		.loc 1 520 17 is_stmt 0 view .LVU246
 1110 000a FFF7FEFF 		bl	USBD_Get_USB_Status
 1111              	.LVL116:
 522:USB_DEVICE/Target/usbd_conf.c **** }
 1112              		.loc 1 522 3 is_stmt 1 view .LVU247
 523:USB_DEVICE/Target/usbd_conf.c **** 
 1113              		.loc 1 523 1 is_stmt 0 view .LVU248
 1114 000e 08BD     		pop	{r3, pc}
 1115              		.cfi_endproc
 1116              	.LFE149:
 1118              		.section	.text.USBD_LL_Transmit,"ax",%progbits
 1119              		.align	1
 1120              		.global	USBD_LL_Transmit
 1121              		.syntax unified
 1122              		.thumb
 1123              		.thumb_func
 1125              	USBD_LL_Transmit:
 1126              	.LVL117:
 1127              	.LFB150:
 534:USB_DEVICE/Target/usbd_conf.c ****   HAL_StatusTypeDef hal_status = HAL_OK;
 1128              		.loc 1 534 1 is_stmt 1 view -0
 1129              		.cfi_startproc
 1130              		@ args = 0, pretend = 0, frame = 0
 1131              		@ frame_needed = 0, uses_anonymous_args = 0
 534:USB_DEVICE/Target/usbd_conf.c ****   HAL_StatusTypeDef hal_status = HAL_OK;
 1132              		.loc 1 534 1 is_stmt 0 view .LVU250
 1133 0000 08B5     		push	{r3, lr}
 1134              	.LCFI25:
 1135              		.cfi_def_cfa_offset 8
 1136              		.cfi_offset 3, -8
 1137              		.cfi_offset 14, -4
 535:USB_DEVICE/Target/usbd_conf.c ****   USBD_StatusTypeDef usb_status = USBD_OK;
 1138              		.loc 1 535 3 is_stmt 1 view .LVU251
 1139              	.LVL118:
 536:USB_DEVICE/Target/usbd_conf.c **** 
 1140              		.loc 1 536 3 view .LVU252
ARM GAS  C:\Users\Simio\AppData\Local\Temp\ccX5nZ0t.s 			page 36


 538:USB_DEVICE/Target/usbd_conf.c **** 
 1141              		.loc 1 538 3 view .LVU253
 538:USB_DEVICE/Target/usbd_conf.c **** 
 1142              		.loc 1 538 16 is_stmt 0 view .LVU254
 1143 0002 D0F8C002 		ldr	r0, [r0, #704]
 1144              	.LVL119:
 538:USB_DEVICE/Target/usbd_conf.c **** 
 1145              		.loc 1 538 16 view .LVU255
 1146 0006 FFF7FEFF 		bl	HAL_PCD_EP_Transmit
 1147              	.LVL120:
 540:USB_DEVICE/Target/usbd_conf.c **** 
 1148              		.loc 1 540 3 is_stmt 1 view .LVU256
 540:USB_DEVICE/Target/usbd_conf.c **** 
 1149              		.loc 1 540 17 is_stmt 0 view .LVU257
 1150 000a FFF7FEFF 		bl	USBD_Get_USB_Status
 1151              	.LVL121:
 542:USB_DEVICE/Target/usbd_conf.c **** }
 1152              		.loc 1 542 3 is_stmt 1 view .LVU258
 543:USB_DEVICE/Target/usbd_conf.c **** 
 1153              		.loc 1 543 1 is_stmt 0 view .LVU259
 1154 000e 08BD     		pop	{r3, pc}
 1155              		.cfi_endproc
 1156              	.LFE150:
 1158              		.section	.text.USBD_LL_PrepareReceive,"ax",%progbits
 1159              		.align	1
 1160              		.global	USBD_LL_PrepareReceive
 1161              		.syntax unified
 1162              		.thumb
 1163              		.thumb_func
 1165              	USBD_LL_PrepareReceive:
 1166              	.LVL122:
 1167              	.LFB151:
 554:USB_DEVICE/Target/usbd_conf.c ****   HAL_StatusTypeDef hal_status = HAL_OK;
 1168              		.loc 1 554 1 is_stmt 1 view -0
 1169              		.cfi_startproc
 1170              		@ args = 0, pretend = 0, frame = 0
 1171              		@ frame_needed = 0, uses_anonymous_args = 0
 554:USB_DEVICE/Target/usbd_conf.c ****   HAL_StatusTypeDef hal_status = HAL_OK;
 1172              		.loc 1 554 1 is_stmt 0 view .LVU261
 1173 0000 08B5     		push	{r3, lr}
 1174              	.LCFI26:
 1175              		.cfi_def_cfa_offset 8
 1176              		.cfi_offset 3, -8
 1177              		.cfi_offset 14, -4
 555:USB_DEVICE/Target/usbd_conf.c ****   USBD_StatusTypeDef usb_status = USBD_OK;
 1178              		.loc 1 555 3 is_stmt 1 view .LVU262
 1179              	.LVL123:
 556:USB_DEVICE/Target/usbd_conf.c **** 
 1180              		.loc 1 556 3 view .LVU263
 558:USB_DEVICE/Target/usbd_conf.c **** 
 1181              		.loc 1 558 3 view .LVU264
 558:USB_DEVICE/Target/usbd_conf.c **** 
 1182              		.loc 1 558 16 is_stmt 0 view .LVU265
 1183 0002 D0F8C002 		ldr	r0, [r0, #704]
 1184              	.LVL124:
 558:USB_DEVICE/Target/usbd_conf.c **** 
 1185              		.loc 1 558 16 view .LVU266
ARM GAS  C:\Users\Simio\AppData\Local\Temp\ccX5nZ0t.s 			page 37


 1186 0006 FFF7FEFF 		bl	HAL_PCD_EP_Receive
 1187              	.LVL125:
 560:USB_DEVICE/Target/usbd_conf.c **** 
 1188              		.loc 1 560 3 is_stmt 1 view .LVU267
 560:USB_DEVICE/Target/usbd_conf.c **** 
 1189              		.loc 1 560 17 is_stmt 0 view .LVU268
 1190 000a FFF7FEFF 		bl	USBD_Get_USB_Status
 1191              	.LVL126:
 562:USB_DEVICE/Target/usbd_conf.c **** }
 1192              		.loc 1 562 3 is_stmt 1 view .LVU269
 563:USB_DEVICE/Target/usbd_conf.c **** 
 1193              		.loc 1 563 1 is_stmt 0 view .LVU270
 1194 000e 08BD     		pop	{r3, pc}
 1195              		.cfi_endproc
 1196              	.LFE151:
 1198              		.section	.text.USBD_LL_GetRxDataSize,"ax",%progbits
 1199              		.align	1
 1200              		.global	USBD_LL_GetRxDataSize
 1201              		.syntax unified
 1202              		.thumb
 1203              		.thumb_func
 1205              	USBD_LL_GetRxDataSize:
 1206              	.LVL127:
 1207              	.LFB152:
 572:USB_DEVICE/Target/usbd_conf.c ****   return HAL_PCD_EP_GetRxCount((PCD_HandleTypeDef*) pdev->pData, ep_addr);
 1208              		.loc 1 572 1 is_stmt 1 view -0
 1209              		.cfi_startproc
 1210              		@ args = 0, pretend = 0, frame = 0
 1211              		@ frame_needed = 0, uses_anonymous_args = 0
 572:USB_DEVICE/Target/usbd_conf.c ****   return HAL_PCD_EP_GetRxCount((PCD_HandleTypeDef*) pdev->pData, ep_addr);
 1212              		.loc 1 572 1 is_stmt 0 view .LVU272
 1213 0000 08B5     		push	{r3, lr}
 1214              	.LCFI27:
 1215              		.cfi_def_cfa_offset 8
 1216              		.cfi_offset 3, -8
 1217              		.cfi_offset 14, -4
 573:USB_DEVICE/Target/usbd_conf.c **** }
 1218              		.loc 1 573 3 is_stmt 1 view .LVU273
 573:USB_DEVICE/Target/usbd_conf.c **** }
 1219              		.loc 1 573 10 is_stmt 0 view .LVU274
 1220 0002 D0F8C002 		ldr	r0, [r0, #704]
 1221              	.LVL128:
 573:USB_DEVICE/Target/usbd_conf.c **** }
 1222              		.loc 1 573 10 view .LVU275
 1223 0006 FFF7FEFF 		bl	HAL_PCD_EP_GetRxCount
 1224              	.LVL129:
 574:USB_DEVICE/Target/usbd_conf.c **** 
 1225              		.loc 1 574 1 view .LVU276
 1226 000a 08BD     		pop	{r3, pc}
 1227              		.cfi_endproc
 1228              	.LFE152:
 1230              		.section	.text.USBD_LL_Delay,"ax",%progbits
 1231              		.align	1
 1232              		.global	USBD_LL_Delay
 1233              		.syntax unified
 1234              		.thumb
 1235              		.thumb_func
ARM GAS  C:\Users\Simio\AppData\Local\Temp\ccX5nZ0t.s 			page 38


 1237              	USBD_LL_Delay:
 1238              	.LVL130:
 1239              	.LFB153:
 582:USB_DEVICE/Target/usbd_conf.c ****   HAL_Delay(Delay);
 1240              		.loc 1 582 1 is_stmt 1 view -0
 1241              		.cfi_startproc
 1242              		@ args = 0, pretend = 0, frame = 0
 1243              		@ frame_needed = 0, uses_anonymous_args = 0
 582:USB_DEVICE/Target/usbd_conf.c ****   HAL_Delay(Delay);
 1244              		.loc 1 582 1 is_stmt 0 view .LVU278
 1245 0000 08B5     		push	{r3, lr}
 1246              	.LCFI28:
 1247              		.cfi_def_cfa_offset 8
 1248              		.cfi_offset 3, -8
 1249              		.cfi_offset 14, -4
 583:USB_DEVICE/Target/usbd_conf.c **** }
 1250              		.loc 1 583 3 is_stmt 1 view .LVU279
 1251 0002 FFF7FEFF 		bl	HAL_Delay
 1252              	.LVL131:
 584:USB_DEVICE/Target/usbd_conf.c **** 
 1253              		.loc 1 584 1 is_stmt 0 view .LVU280
 1254 0006 08BD     		pop	{r3, pc}
 1255              		.cfi_endproc
 1256              	.LFE153:
 1258              		.section	.text.USBD_static_malloc,"ax",%progbits
 1259              		.align	1
 1260              		.global	USBD_static_malloc
 1261              		.syntax unified
 1262              		.thumb
 1263              		.thumb_func
 1265              	USBD_static_malloc:
 1266              	.LVL132:
 1267              	.LFB154:
 592:USB_DEVICE/Target/usbd_conf.c ****   static uint32_t mem[(sizeof(USBD_CDC_HandleTypeDef)/4)+1];/* On 32-bit boundary */
 1268              		.loc 1 592 1 is_stmt 1 view -0
 1269              		.cfi_startproc
 1270              		@ args = 0, pretend = 0, frame = 0
 1271              		@ frame_needed = 0, uses_anonymous_args = 0
 1272              		@ link register save eliminated.
 593:USB_DEVICE/Target/usbd_conf.c ****   return mem;
 1273              		.loc 1 593 3 view .LVU282
 594:USB_DEVICE/Target/usbd_conf.c **** }
 1274              		.loc 1 594 3 view .LVU283
 595:USB_DEVICE/Target/usbd_conf.c **** 
 1275              		.loc 1 595 1 is_stmt 0 view .LVU284
 1276 0000 0048     		ldr	r0, .L86
 1277              	.LVL133:
 595:USB_DEVICE/Target/usbd_conf.c **** 
 1278              		.loc 1 595 1 view .LVU285
 1279 0002 7047     		bx	lr
 1280              	.L87:
 1281              		.align	2
 1282              	.L86:
 1283 0004 00000000 		.word	mem.0
 1284              		.cfi_endproc
 1285              	.LFE154:
 1287              		.section	.text.USBD_static_free,"ax",%progbits
ARM GAS  C:\Users\Simio\AppData\Local\Temp\ccX5nZ0t.s 			page 39


 1288              		.align	1
 1289              		.global	USBD_static_free
 1290              		.syntax unified
 1291              		.thumb
 1292              		.thumb_func
 1294              	USBD_static_free:
 1295              	.LVL134:
 1296              	.LFB155:
 603:USB_DEVICE/Target/usbd_conf.c **** 
 1297              		.loc 1 603 1 is_stmt 1 view -0
 1298              		.cfi_startproc
 1299              		@ args = 0, pretend = 0, frame = 0
 1300              		@ frame_needed = 0, uses_anonymous_args = 0
 1301              		@ link register save eliminated.
 605:USB_DEVICE/Target/usbd_conf.c **** 
 1302              		.loc 1 605 1 view .LVU287
 1303 0000 7047     		bx	lr
 1304              		.cfi_endproc
 1305              	.LFE155:
 1307              		.section	.text.HAL_PCDEx_SetConnectionState,"ax",%progbits
 1308              		.align	1
 1309              		.global	HAL_PCDEx_SetConnectionState
 1310              		.syntax unified
 1311              		.thumb
 1312              		.thumb_func
 1314              	HAL_PCDEx_SetConnectionState:
 1315              	.LVL135:
 1316              	.LFB156:
 618:USB_DEVICE/Target/usbd_conf.c ****   /* USER CODE BEGIN 6 */
 1317              		.loc 1 618 1 view -0
 1318              		.cfi_startproc
 1319              		@ args = 0, pretend = 0, frame = 0
 1320              		@ frame_needed = 0, uses_anonymous_args = 0
 1321              		@ link register save eliminated.
 620:USB_DEVICE/Target/usbd_conf.c ****   {
 1322              		.loc 1 620 3 view .LVU289
 624:USB_DEVICE/Target/usbd_conf.c ****   else
 1323              		.loc 1 624 3 view .LVU290
 629:USB_DEVICE/Target/usbd_conf.c ****   /* USER CODE END 6 */
 1324              		.loc 1 629 3 view .LVU291
 631:USB_DEVICE/Target/usbd_conf.c **** 
 1325              		.loc 1 631 1 is_stmt 0 view .LVU292
 1326 0000 7047     		bx	lr
 1327              		.cfi_endproc
 1328              	.LFE156:
 1330              		.section	.bss.mem.0,"aw",%nobits
 1331              		.align	2
 1334              	mem.0:
 1335 0000 00000000 		.space	544
 1335      00000000 
 1335      00000000 
 1335      00000000 
 1335      00000000 
 1336              		.global	hpcd_USB_FS
 1337              		.section	.bss.hpcd_USB_FS,"aw",%nobits
 1338              		.align	2
 1341              	hpcd_USB_FS:
ARM GAS  C:\Users\Simio\AppData\Local\Temp\ccX5nZ0t.s 			page 40


 1342 0000 00000000 		.space	748
 1342      00000000 
 1342      00000000 
 1342      00000000 
 1342      00000000 
 1343              		.text
 1344              	.Letext0:
 1345              		.file 2 "Drivers/CMSIS/Device/ST/STM32F3xx/Include/stm32f302x8.h"
 1346              		.file 3 "C:/toolchain/arm_gnu_toolchain/arm-none-eabi/include/machine/_default_types.h"
 1347              		.file 4 "C:/toolchain/arm_gnu_toolchain/arm-none-eabi/include/sys/_stdint.h"
 1348              		.file 5 "Drivers/CMSIS/Include/core_cm4.h"
 1349              		.file 6 "Drivers/CMSIS/Device/ST/STM32F3xx/Include/stm32f3xx.h"
 1350              		.file 7 "Drivers/STM32F3xx_HAL_Driver/Inc/stm32f3xx_hal_def.h"
 1351              		.file 8 "Drivers/STM32F3xx_HAL_Driver/Inc/stm32f3xx_ll_usb.h"
 1352              		.file 9 "Drivers/STM32F3xx_HAL_Driver/Inc/stm32f3xx_hal_pcd.h"
 1353              		.file 10 "Middlewares/ST/STM32_USB_Device_Library/Core/Inc/usbd_def.h"
 1354              		.file 11 "Drivers/STM32F3xx_HAL_Driver/Inc/stm32f3xx_hal_pcd_ex.h"
 1355              		.file 12 "Middlewares/ST/STM32_USB_Device_Library/Core/Inc/usbd_core.h"
 1356              		.file 13 "Drivers/STM32F3xx_HAL_Driver/Inc/stm32f3xx_hal.h"
 1357              		.file 14 "Drivers/STM32F3xx_HAL_Driver/Inc/stm32f3xx_hal_cortex.h"
ARM GAS  C:\Users\Simio\AppData\Local\Temp\ccX5nZ0t.s 			page 41

